	.file	"bench_ed25519_plain.c"
	.text
	.p2align 4
	.type	fiat_25519_carry_mul, @function
fiat_25519_carry_mul:
.LFB54:
	.cfi_startproc
	pushq	%r15
	.cfi_def_cfa_offset 16
	.cfi_offset 15, -16
	movq	%rsi, %rax
	pushq	%r14
	.cfi_def_cfa_offset 24
	.cfi_offset 14, -24
	pushq	%r13
	.cfi_def_cfa_offset 32
	.cfi_offset 13, -32
	pushq	%r12
	.cfi_def_cfa_offset 40
	.cfi_offset 12, -40
	pushq	%rbp
	.cfi_def_cfa_offset 48
	.cfi_offset 6, -48
	pushq	%rbx
	.cfi_def_cfa_offset 56
	.cfi_offset 3, -56
	movq	%rdi, %rbx
	movq	32(%rdx), %rdi
	movq	24(%rdx), %rbp
	movq	32(%rsi), %r14
	leaq	(%rdi,%rdi,8), %rcx
	movq	16(%rdx), %rsi
	movq	24(%rax), %r11
	movq	8(%rax), %r10
	movq	(%rdx), %r15
	movq	%rdi, -48(%rsp)
	leaq	(%rdi,%rcx,2), %rdi
	leaq	0(%rbp,%rbp,8), %rcx
	movq	%rdi, -56(%rsp)
	movq	16(%rax), %rdi
	leaq	0(%rbp,%rcx,2), %r8
	leaq	(%rsi,%rsi,8), %rcx
	movq	(%rax), %rax
	movq	%r10, -64(%rsp)
	leaq	(%rsi,%rcx,2), %r9
	movq	8(%rdx), %rcx
	movq	%r11, -72(%rsp)
	movq	%rax, -80(%rsp)
	leaq	(%rcx,%rcx,8), %rax
	leaq	(%rcx,%rax,2), %r13
	movq	%r13, %rax
	mulq	%r14
	movq	%rax, %r12
	movq	%r11, %rax
	movq	%rdx, %r13
	mulq	%r9
	addq	%rax, %r12
	movq	%r8, %rax
	adcq	%rdx, %r13
	mulq	%rdi
	addq	%rax, %r12
	movq	-56(%rsp), %rax
	adcq	%rdx, %r13
	mulq	%r10
	addq	%rax, %r12
	movq	-80(%rsp), %rax
	adcq	%rdx, %r13
	movq	%r12, %r10
	mulq	%r15
	movq	%r13, %r11
	addq	%rax, %r10
	movq	%r9, %rax
	adcq	%rdx, %r11
	mulq	%r14
	movq	%r10, -40(%rsp)
	movq	%r11, -32(%rsp)
	movq	%rax, %r12
	movq	-72(%rsp), %rax
	movq	%rdx, %r13
	mulq	%r8
	addq	%rax, %r12
	movq	-56(%rsp), %rax
	adcq	%rdx, %r13
	mulq	%rdi
	addq	%rax, %r12
	movq	-64(%rsp), %rax
	adcq	%rdx, %r13
	mulq	%r15
	addq	%rax, %r12
	movq	-80(%rsp), %rax
	adcq	%rdx, %r13
	mulq	%rcx
	addq	%r12, %rax
	movq	%r10, %r12
	adcq	%r13, %rdx
	shrdq	$51, %r11, %r12
	xorl	%r11d, %r11d
	addq	%r12, %rax
	adcq	%r11, %rdx
	movq	%rax, %r12
	movq	%r8, %rax
	movq	%rdx, %r13
	mulq	%r14
	movq	%rax, %r8
	movq	%rdx, %r9
	movq	-56(%rsp), %rax
	mulq	-72(%rsp)
	addq	%rax, %r8
	movq	%rdi, %rax
	adcq	%rdx, %r9
	mulq	%r15
	addq	%rax, %r8
	movq	-64(%rsp), %rax
	adcq	%rdx, %r9
	movq	%r8, %r10
	mulq	%rcx
	movq	%r9, %r11
	movq	%r12, %r9
	addq	%rax, %r10
	movq	-80(%rsp), %rax
	movq	%r12, -24(%rsp)
	adcq	%rdx, %r11
	movq	%r13, -16(%rsp)
	mulq	%rsi
	addq	%r10, %rax
	adcq	%r11, %rdx
	shrdq	$51, %r13, %r9
	xorl	%r13d, %r13d
	movq	%r9, %r12
	addq	%rax, %r12
	movq	-56(%rsp), %rax
	adcq	%rdx, %r13
	mulq	%r14
	movq	%rax, %r8
	movq	-72(%rsp), %rax
	movq	%rdx, %r9
	mulq	%r15
	addq	%rax, %r8
	movq	%rdi, %rax
	adcq	%rdx, %r9
	mulq	%rcx
	addq	%rax, %r8
	movq	-64(%rsp), %rax
	adcq	%rdx, %r9
	movq	%r8, %r10
	movq	%r12, %r8
	mulq	%rsi
	movq	%r9, %r11
	addq	%rax, %r10
	movq	-80(%rsp), %rax
	adcq	%rdx, %r11
	mulq	%rbp
	addq	%r10, %rax
	adcq	%r11, %rdx
	shrdq	$51, %r13, %r8
	xorl	%r9d, %r9d
	addq	%rax, %r8
	movq	%r14, %rax
	adcq	%rdx, %r9
	mulq	%r15
	movq	%rax, %r14
	movq	-72(%rsp), %rax
	movq	%rdx, %r15
	mulq	%rcx
	addq	%rax, %r14
	movq	%rdi, %rax
	adcq	%rdx, %r15
	mulq	%rsi
	movq	%rax, %rsi
	movq	-64(%rsp), %rax
	movq	%rdx, %rdi
	addq	%r14, %rsi
	adcq	%r15, %rdi
	mulq	%rbp
	addq	%rax, %rsi
	movq	-80(%rsp), %rax
	adcq	%rdx, %rdi
	mulq	-48(%rsp)
	addq	%rsi, %rax
	adcq	%rdi, %rdx
	movq	%r8, %rdi
	shrdq	$51, %r9, %rdi
	movq	%rdi, %rsi
	xorl	%edi, %edi
	addq	%rax, %rsi
	adcq	%rdx, %rdi
	movq	%rsi, %rax
	shrdq	$51, %rdi, %rax
	leaq	(%rax,%rax,8), %rdx
	leaq	(%rax,%rdx,2), %rcx
	movq	-40(%rsp), %rax
	movabsq	$2251799813685247, %rdx
	andq	%rdx, %r12
	andq	%rdx, %rsi
	andq	%rdx, %rax
	movq	%rsi, 32(%rbx)
	addq	%rax, %rcx
	movq	-24(%rsp), %rax
	movq	%rcx, %rdi
	andq	%rdx, %rcx
	andq	%rdx, %rax
	shrq	$51, %rdi
	movq	%rcx, (%rbx)
	addq	%rdi, %rax
	movq	%rax, %rcx
	shrq	$51, %rax
	addq	%r12, %rax
	andq	%rdx, %rcx
	movq	%rax, 16(%rbx)
	movq	%r8, %rax
	andq	%rdx, %rax
	movq	%rcx, 8(%rbx)
	movq	%rax, 24(%rbx)
	popq	%rbx
	.cfi_def_cfa_offset 48
	popq	%rbp
	.cfi_def_cfa_offset 40
	popq	%r12
	.cfi_def_cfa_offset 32
	popq	%r13
	.cfi_def_cfa_offset 24
	popq	%r14
	.cfi_def_cfa_offset 16
	popq	%r15
	.cfi_def_cfa_offset 8
	ret
	.cfi_endproc
.LFE54:
	.size	fiat_25519_carry_mul, .-fiat_25519_carry_mul
	.p2align 4
	.type	sc_muladd, @function
sc_muladd:
.LFB84:
	.cfi_startproc
	pushq	%r15
	.cfi_def_cfa_offset 16
	.cfi_offset 15, -16
	movq	%rsi, %r9
	movq	%rdx, %rsi
	movq	%rcx, %rdx
	pushq	%r14
	.cfi_def_cfa_offset 24
	.cfi_offset 14, -24
	movq	%rdi, %rax
	pushq	%r13
	.cfi_def_cfa_offset 32
	.cfi_offset 13, -32
	pushq	%r12
	.cfi_def_cfa_offset 40
	.cfi_offset 12, -40
	pushq	%rbp
	.cfi_def_cfa_offset 48
	.cfi_offset 6, -48
	pushq	%rbx
	.cfi_def_cfa_offset 56
	.cfi_offset 3, -56
	subq	$80, %rsp
	.cfi_def_cfa_offset 136
	movzbl	1(%r9), %r8d
	movzbl	2(%r9), %ecx
	movzbl	(%r9), %edi
	movzbl	15(%r9), %r10d
	salq	$16, %rcx
	salq	$8, %r8
	movl	2(%r9), %r12d
	movl	7(%r9), %ebx
	orq	%rcx, %r8
	movzbl	7(%r9), %ecx
	salq	$16, %r10
	shrq	$5, %r12
	orq	%rdi, %r8
	movzbl	6(%r9), %edi
	shrq	$7, %rbx
	salq	$16, %rcx
	andl	$2097151, %r8d
	andl	$2097151, %r12d
	andl	$2097151, %ebx
	salq	$8, %rdi
	orq	%rcx, %rdi
	movzbl	5(%r9), %ecx
	orq	%rcx, %rdi
	movl	10(%r9), %ecx
	shrq	$2, %rdi
	shrq	$4, %rcx
	andl	$2097151, %edi
	andl	$2097151, %ecx
	movq	%rcx, -104(%rsp)
	movzbl	14(%r9), %ecx
	salq	$8, %rcx
	orq	%r10, %rcx
	movzbl	13(%r9), %r10d
	orq	%r10, %rcx
	movzbl	20(%r9), %r10d
	shrq	%rcx
	andl	$2097151, %ecx
	salq	$16, %r10
	movq	%rcx, -80(%rsp)
	movl	15(%r9), %ecx
	shrq	$6, %rcx
	movq	%rcx, %r15
	movzbl	19(%r9), %ecx
	andl	$2097151, %r15d
	salq	$8, %rcx
	movq	%r15, -72(%rsp)
	orq	%r10, %rcx
	movzbl	18(%r9), %r10d
	orq	%r10, %rcx
	movzbl	21(%r9), %r10d
	movq	%rcx, %r11
	movzbl	22(%r9), %ecx
	shrq	$3, %r11
	movq	%r11, -40(%rsp)
	movzbl	23(%r9), %r11d
	salq	$8, %rcx
	salq	$16, %r11
	orq	%r11, %rcx
	orq	%r10, %rcx
	movq	%rcx, %r14
	movl	23(%r9), %ecx
	andl	$2097151, %r14d
	shrq	$5, %rcx
	movq	%r14, -32(%rsp)
	movq	%rcx, %rbp
	andl	$2097151, %ebp
	movq	%rbp, -24(%rsp)
	movzbl	27(%r9), %r10d
	movzbl	28(%r9), %ecx
	movzbl	(%rsi), %r11d
	salq	$8, %r10
	movl	2(%rsi), %ebp
	movzbl	14(%rsi), %r14d
	salq	$16, %rcx
	movzbl	15(%rsi), %r13d
	shrq	$5, %rbp
	orq	%r10, %rcx
	movzbl	26(%r9), %r10d
	salq	$8, %r14
	salq	$16, %r13
	andl	$2097151, %ebp
	orq	%r10, %rcx
	shrq	$2, %rcx
	movq	%rcx, %r10
	movl	28(%r9), %ecx
	andl	$2097151, %r10d
	movq	%r10, -16(%rsp)
	movq	%rcx, %r9
	movzbl	2(%rsi), %r10d
	movzbl	1(%rsi), %ecx
	shrq	$7, %r9
	salq	$16, %r10
	movq	%r9, -48(%rsp)
	salq	$8, %rcx
	orq	%r10, %rcx
	movzbl	6(%rsi), %r10d
	orq	%r11, %rcx
	movl	7(%rsi), %r11d
	movq	%rcx, %r9
	movzbl	7(%rsi), %ecx
	salq	$8, %r10
	shrq	$7, %r11
	andl	$2097151, %r9d
	salq	$16, %rcx
	andl	$2097151, %r11d
	orq	%r10, %rcx
	movzbl	5(%rsi), %r10d
	orq	%r10, %rcx
	movl	10(%rsi), %r10d
	shrq	$2, %rcx
	shrq	$4, %r10
	andl	$2097151, %ecx
	andl	$2097151, %r10d
	orq	%r14, %r13
	movzbl	13(%rsi), %r14d
	orq	%r14, %r13
	shrq	%r13
	movq	%r13, %r15
	movl	15(%rsi), %r13d
	andl	$2097151, %r15d
	shrq	$6, %r13
	movq	%r15, -120(%rsp)
	movq	%r13, %r14
	movzbl	20(%rsi), %r13d
	andl	$2097151, %r14d
	movq	%r14, -64(%rsp)
	movzbl	19(%rsi), %r14d
	salq	$16, %r13
	salq	$8, %r14
	orq	%r14, %r13
	movzbl	18(%rsi), %r14d
	orq	%r14, %r13
	movzbl	23(%rsi), %r14d
	movq	%r13, %r15
	movzbl	22(%rsi), %r13d
	shrq	$3, %r15
	salq	$16, %r14
	movq	%r15, -112(%rsp)
	salq	$8, %r13
	movzbl	21(%rsi), %r15d
	orq	%r14, %r13
	orq	%r15, %r13
	movq	%r13, %r15
	movl	23(%rsi), %r13d
	andl	$2097151, %r15d
	shrq	$5, %r13
	movq	%r15, -96(%rsp)
	movq	%r13, %r14
	andl	$2097151, %r14d
	movq	%r14, -88(%rsp)
	movzbl	27(%rsi), %r14d
	movzbl	28(%rsi), %r13d
	salq	$8, %r14
	salq	$16, %r13
	orq	%r14, %r13
	movzbl	26(%rsi), %r14d
	movl	28(%rsi), %esi
	shrq	$7, %rsi
	orq	%r14, %r13
	movq	%rsi, -56(%rsp)
	movzbl	(%rdx), %esi
	shrq	$2, %r13
	movq	%r13, %r15
	movzbl	2(%rdx), %r13d
	movq	%rsi, %r14
	movzbl	21(%rdx), %esi
	andl	$2097151, %r15d
	salq	$16, %r13
	movq	%rsi, 56(%rsp)
	movzbl	1(%rdx), %esi
	salq	$8, %rsi
	orq	%r13, %rsi
	movzbl	6(%rdx), %r13d
	orq	%r14, %rsi
	movq	%r8, %r14
	imulq	%r9, %r14
	andl	$2097151, %esi
	addq	%r14, %rsi
	movq	%r8, %r14
	movq	%rsi, -8(%rsp)
	movl	2(%rdx), %esi
	shrq	$5, %rsi
	imulq	%rbp, %r14
	salq	$8, %r13
	andl	$2097151, %esi
	addq	%r14, %rsi
	movq	%r12, %r14
	imulq	%r9, %r14
	addq	%r14, %rsi
	movq	%r8, %r14
	movq	%rsi, (%rsp)
	movzbl	7(%rdx), %esi
	imulq	%rcx, %r14
	salq	$16, %rsi
	orq	%r13, %rsi
	movzbl	5(%rdx), %r13d
	orq	%r13, %rsi
	movq	%r14, %r13
	movq	%rdi, %r14
	shrq	$2, %rsi
	imulq	%r9, %r14
	andl	$2097151, %esi
	addq	%rsi, %r13
	movq	%r12, %rsi
	imulq	%rbp, %rsi
	addq	%r13, %rsi
	addq	%r14, %rsi
	movq	%r8, %r14
	movq	%rsi, 8(%rsp)
	movl	7(%rdx), %esi
	imulq	%r11, %r14
	shrq	$7, %rsi
	andl	$2097151, %esi
	addq	%r14, %rsi
	movq	%r12, %r14
	imulq	%rcx, %r14
	movq	%r14, %r13
	movq	%rbx, %r14
	addq	%rsi, %r13
	imulq	%r9, %r14
	movq	%rdi, %rsi
	imulq	%rbp, %rsi
	addq	%r13, %rsi
	addq	%r14, %rsi
	movq	%r8, %r14
	imulq	%r10, %r14
	movq	%rsi, 16(%rsp)
	movl	10(%rdx), %esi
	shrq	$4, %rsi
	andl	$2097151, %esi
	movq	%r14, %r13
	movq	%rdi, %r14
	addq	%rsi, %r13
	movq	%r12, %rsi
	imulq	%r11, %rsi
	imulq	%rcx, %r14
	addq	%r13, %rsi
	movq	%r14, %r13
	movq	%r12, %r14
	addq	%rsi, %r13
	imulq	%r10, %r14
	movq	%rbx, %rsi
	imulq	%rbp, %rsi
	addq	%r13, %rsi
	movq	-104(%rsp), %r13
	imulq	%r9, %r13
	addq	%r13, %rsi
	movzbl	14(%rdx), %r13d
	movq	%rsi, 24(%rsp)
	movzbl	15(%rdx), %esi
	salq	$8, %r13
	salq	$16, %rsi
	orq	%r13, %rsi
	movzbl	13(%rdx), %r13d
	orq	%r13, %rsi
	movq	-120(%rsp), %r13
	shrq	%rsi
	imulq	%r8, %r13
	andl	$2097151, %esi
	addq	%r13, %rsi
	movq	%r14, %r13
	movq	%rbx, %r14
	addq	%rsi, %r13
	imulq	%rcx, %r14
	movq	%rdi, %rsi
	imulq	%r11, %rsi
	addq	%r13, %rsi
	movq	%r14, %r13
	addq	%rsi, %r13
	movq	-104(%rsp), %rsi
	imulq	%rbp, %rsi
	addq	%r13, %rsi
	movq	-80(%rsp), %r13
	imulq	%r9, %r13
	leaq	(%rsi,%r13), %r14
	movl	15(%rdx), %esi
	movq	%r14, 32(%rsp)
	movq	-64(%rsp), %r14
	shrq	$6, %rsi
	movq	%r14, %r13
	andl	$2097151, %esi
	imulq	%r8, %r13
	addq	%rsi, %r13
	movq	-120(%rsp), %rsi
	imulq	%r12, %rsi
	addq	%r13, %rsi
	movq	%rdi, %r13
	imulq	%r10, %r13
	addq	%rsi, %r13
	movq	%rbx, %rsi
	imulq	%r11, %rsi
	addq	%r13, %rsi
	movq	-104(%rsp), %r13
	imulq	%rcx, %r13
	addq	%rsi, %r13
	movq	-80(%rsp), %rsi
	imulq	%rbp, %rsi
	addq	%r13, %rsi
	movq	-72(%rsp), %r13
	imulq	%r9, %r13
	addq	%rsi, %r13
	movzbl	20(%rdx), %esi
	movq	%r13, 40(%rsp)
	movzbl	19(%rdx), %r13d
	salq	$16, %rsi
	salq	$8, %r13
	orq	%r13, %rsi
	movzbl	18(%rdx), %r13d
	orq	%r13, %rsi
	movq	-112(%rsp), %r13
	shrq	$3, %rsi
	imulq	%r8, %r13
	addq	%r13, %rsi
	movq	%r14, %r13
	imulq	%r12, %r13
	addq	%rsi, %r13
	movq	-120(%rsp), %rsi
	imulq	%rdi, %rsi
	addq	%r13, %rsi
	movq	%rbx, %r13
	imulq	%r10, %r13
	addq	%rsi, %r13
	movq	-104(%rsp), %rsi
	imulq	%r11, %rsi
	addq	%r13, %rsi
	movq	-80(%rsp), %r13
	imulq	%rcx, %r13
	addq	%rsi, %r13
	movq	-72(%rsp), %rsi
	imulq	%rbp, %rsi
	addq	%r13, %rsi
	movq	-40(%rsp), %r13
	imulq	%r9, %r13
	addq	%rsi, %r13
	movzbl	22(%rdx), %esi
	movq	%r13, 48(%rsp)
	movzbl	23(%rdx), %r13d
	salq	$8, %rsi
	salq	$16, %r13
	orq	%r13, %rsi
	movq	56(%rsp), %r13
	orq	%r13, %rsi
	movq	-96(%rsp), %r13
	andl	$2097151, %esi
	imulq	%r8, %r13
	addq	%rsi, %r13
	movq	-112(%rsp), %rsi
	imulq	%r12, %rsi
	addq	%r13, %rsi
	movq	%r14, %r13
	imulq	%rdi, %r13
	imulq	%rbx, %r14
	addq	%rsi, %r13
	movq	-120(%rsp), %rsi
	imulq	%rbx, %rsi
	addq	%r13, %rsi
	movq	-104(%rsp), %r13
	imulq	%r10, %r13
	addq	%rsi, %r13
	movq	-80(%rsp), %rsi
	imulq	%r11, %rsi
	addq	%r13, %rsi
	movq	-72(%rsp), %r13
	imulq	%rcx, %r13
	addq	%rsi, %r13
	movq	-40(%rsp), %rsi
	imulq	%rbp, %rsi
	addq	%r13, %rsi
	movq	-32(%rsp), %r13
	imulq	%r9, %r13
	addq	%rsi, %r13
	movl	23(%rdx), %esi
	movq	%r13, 56(%rsp)
	movq	-88(%rsp), %r13
	shrq	$5, %rsi
	imulq	%r8, %r13
	andl	$2097151, %esi
	addq	%r13, %rsi
	movq	-96(%rsp), %r13
	imulq	%r12, %r13
	addq	%rsi, %r13
	movq	-112(%rsp), %rsi
	imulq	%rdi, %rsi
	addq	%r13, %rsi
	movq	%r14, %r13
	movq	-120(%rsp), %r14
	addq	%rsi, %r13
	movq	-104(%rsp), %rsi
	imulq	%r14, %rsi
	addq	%r13, %rsi
	movq	-80(%rsp), %r13
	imulq	%r10, %r13
	addq	%rsi, %r13
	movq	-72(%rsp), %rsi
	imulq	%r11, %rsi
	addq	%r13, %rsi
	movq	-40(%rsp), %r13
	imulq	%rcx, %r13
	addq	%rsi, %r13
	movq	-32(%rsp), %rsi
	imulq	%rbp, %rsi
	addq	%r13, %rsi
	movq	-24(%rsp), %r13
	imulq	%r9, %r13
	leaq	(%rsi,%r13), %r14
	movzbl	28(%rdx), %r13d
	movzbl	27(%rdx), %esi
	movq	%r14, 64(%rsp)
	movq	%r8, %r14
	imulq	%r15, %r14
	salq	$16, %r13
	salq	$8, %rsi
	orq	%r13, %rsi
	movzbl	26(%rdx), %r13d
	movl	28(%rdx), %edx
	orq	%r13, %rsi
	movq	%r14, %r13
	movq	-88(%rsp), %r14
	shrq	$2, %rsi
	imulq	%r12, %r14
	andl	$2097151, %esi
	addq	%rsi, %r13
	movq	%r14, %rsi
	movq	-96(%rsp), %r14
	addq	%r13, %rsi
	imulq	%rdi, %r14
	movq	%r14, %r13
	movq	-112(%rsp), %r14
	addq	%rsi, %r13
	imulq	%rbx, %r14
	movq	%r14, %rsi
	movq	-64(%rsp), %r14
	addq	%r13, %rsi
	movq	-104(%rsp), %r13
	imulq	%r14, %r13
	movq	-120(%rsp), %r14
	addq	%rsi, %r13
	movq	-80(%rsp), %rsi
	imulq	%r14, %rsi
	addq	%r13, %rsi
	movq	-72(%rsp), %r13
	imulq	%r10, %r13
	addq	%rsi, %r13
	movq	-40(%rsp), %rsi
	imulq	%r11, %rsi
	addq	%r13, %rsi
	movq	-32(%rsp), %r13
	imulq	%rcx, %r13
	shrq	$7, %rdx
	addq	%rsi, %r13
	movq	-24(%rsp), %rsi
	imulq	%rbp, %rsi
	addq	%r13, %rsi
	movq	-16(%rsp), %r13
	imulq	%r9, %r13
	leaq	(%rsi,%r13), %r14
	movq	-56(%rsp), %rsi
	movq	-112(%rsp), %r13
	movq	%r14, 72(%rsp)
	movq	-64(%rsp), %r14
	imulq	%rsi, %r8
	addq	%rdx, %r8
	movq	%r12, %rdx
	imulq	%r15, %rdx
	movq	%rdx, %rsi
	movq	-88(%rsp), %rdx
	addq	%r8, %rsi
	movq	-96(%rsp), %r8
	imulq	%rdi, %rdx
	imulq	%rbx, %r8
	addq	%rsi, %rdx
	movq	%r8, %rsi
	movq	-104(%rsp), %r8
	addq	%rdx, %rsi
	movq	%r8, %rdx
	imulq	%r13, %rdx
	movq	-80(%rsp), %r13
	addq	%rsi, %rdx
	movq	%r13, %rsi
	imulq	%r14, %rsi
	movq	-120(%rsp), %r14
	addq	%rdx, %rsi
	movq	-72(%rsp), %rdx
	imulq	%r14, %rdx
	movq	-40(%rsp), %r14
	addq	%rsi, %rdx
	movq	%r14, %rsi
	imulq	%r10, %rsi
	addq	%rdx, %rsi
	movq	-32(%rsp), %rdx
	imulq	%r11, %rdx
	addq	%rsi, %rdx
	movq	-24(%rsp), %rsi
	imulq	%rcx, %rsi
	addq	%rdx, %rsi
	movq	-16(%rsp), %rdx
	imulq	%rbp, %rdx
	addq	%rsi, %rdx
	movq	-48(%rsp), %rsi
	imulq	%rsi, %r9
	addq	%rdx, %r9
	movq	-56(%rsp), %rdx
	movq	%r9, -104(%rsp)
	movq	%rdi, %r9
	imulq	%r15, %r9
	imulq	%rdx, %r12
	movq	%r9, %rdx
	movq	-88(%rsp), %r9
	addq	%r12, %rdx
	movq	-64(%rsp), %r12
	imulq	%rbx, %r9
	movq	%r9, %rsi
	movq	-96(%rsp), %r9
	addq	%rdx, %rsi
	movq	%r8, %rdx
	imulq	%r9, %rdx
	movq	-112(%rsp), %r9
	addq	%rsi, %rdx
	movq	%r13, %rsi
	imulq	%r9, %rsi
	movq	-72(%rsp), %r9
	addq	%rdx, %rsi
	movq	%r9, %rdx
	imulq	%r12, %rdx
	movq	%r14, %r12
	addq	%rsi, %rdx
	movq	%r14, %rsi
	movq	-120(%rsp), %r14
	imulq	%r14, %rsi
	movq	-32(%rsp), %r14
	addq	%rdx, %rsi
	movq	%r14, %rdx
	imulq	%r10, %rdx
	addq	%rsi, %rdx
	movq	-24(%rsp), %rsi
	imulq	%r11, %rsi
	addq	%rdx, %rsi
	movq	-16(%rsp), %rdx
	imulq	%rcx, %rdx
	addq	%rsi, %rdx
	movq	-48(%rsp), %rsi
	imulq	%rsi, %rbp
	addq	%rdx, %rbp
	movq	-56(%rsp), %rdx
	movq	%rbp, -80(%rsp)
	movq	%rbx, %rbp
	imulq	%r15, %rbp
	imulq	%rdx, %rdi
	movq	%r8, %rdx
	movq	%rbp, %rsi
	movq	-24(%rsp), %rbp
	addq	%rdi, %rsi
	movq	-88(%rsp), %rdi
	imulq	%rdi, %rdx
	movq	-96(%rsp), %rdi
	addq	%rsi, %rdx
	movq	%r13, %rsi
	imulq	%rdi, %rsi
	movq	-112(%rsp), %rdi
	addq	%rdx, %rsi
	movq	%r9, %rdx
	imulq	%rdi, %rdx
	movq	-64(%rsp), %rdi
	addq	%rsi, %rdx
	movq	%r12, %rsi
	imulq	%rdi, %rsi
	movq	%r14, %rdi
	addq	%rdx, %rsi
	movq	%r14, %rdx
	movq	-120(%rsp), %r14
	imulq	%r14, %rdx
	movq	-64(%rsp), %r14
	addq	%rsi, %rdx
	movq	%rbp, %rsi
	imulq	%r10, %rsi
	addq	%rdx, %rsi
	movq	-16(%rsp), %rdx
	imulq	%r11, %rdx
	addq	%rsi, %rdx
	movq	-48(%rsp), %rsi
	imulq	%rsi, %rcx
	addq	%rdx, %rcx
	movq	-56(%rsp), %rdx
	movq	%rcx, -72(%rsp)
	movq	%r13, %rcx
	imulq	%rdx, %rbx
	movq	%r8, %rdx
	imulq	%r15, %rdx
	addq	%rbx, %rdx
	movq	-88(%rsp), %rbx
	imulq	%rbx, %rcx
	movq	-96(%rsp), %rbx
	addq	%rdx, %rcx
	movq	%r9, %rdx
	imulq	%rbx, %rdx
	movq	-112(%rsp), %rbx
	movq	-120(%rsp), %rsi
	addq	%rcx, %rdx
	movq	%r12, %rcx
	imulq	%rbx, %rcx
	movq	-16(%rsp), %rbx
	addq	%rdx, %rcx
	movq	%rdi, %rdx
	imulq	%r14, %rdx
	addq	%rcx, %rdx
	movq	%rbp, %rcx
	imulq	%rsi, %rcx
	addq	%rdx, %rcx
	movq	%rbx, %rdx
	imulq	%r10, %rdx
	addq	%rcx, %rdx
	movq	-48(%rsp), %rcx
	imulq	%rcx, %r11
	movq	%r13, %rcx
	imulq	%r15, %rcx
	addq	%r11, %rdx
	movq	-88(%rsp), %r11
	movq	%rdx, -120(%rsp)
	movq	-56(%rsp), %rdx
	imulq	%rdx, %r8
	movq	%r9, %rdx
	imulq	%r11, %rdx
	movq	-112(%rsp), %r11
	addq	%r8, %rcx
	movq	-96(%rsp), %r8
	addq	%rcx, %rdx
	movq	%r12, %rcx
	imulq	%r8, %rcx
	addq	%rdx, %rcx
	movq	%rdi, %rdx
	imulq	%r11, %rdx
	addq	%rcx, %rdx
	movq	%rbp, %rcx
	imulq	%r14, %rcx
	addq	%rdx, %rcx
	movq	%rbx, %rdx
	imulq	%rsi, %rdx
	addq	%rcx, %rdx
	movq	-48(%rsp), %rcx
	imulq	%rcx, %r10
	movq	%r9, %rcx
	imulq	%r15, %rcx
	addq	%r10, %rdx
	movq	-88(%rsp), %r10
	movq	%rdx, -112(%rsp)
	movq	-56(%rsp), %rdx
	imulq	%rdx, %r13
	movq	%r13, %rdx
	movq	-48(%rsp), %r13
	addq	%rcx, %rdx
	movq	%r12, %rcx
	imulq	%r10, %rcx
	imulq	%r13, %rsi
	addq	%rdx, %rcx
	movq	%rdi, %rdx
	imulq	%r8, %rdx
	addq	%rcx, %rdx
	movq	%rbp, %rcx
	imulq	%r11, %rcx
	addq	%rdx, %rcx
	movq	%rbx, %rdx
	imulq	%r14, %rdx
	imulq	%r13, %r14
	addq	%rcx, %rdx
	movq	%rsi, %rcx
	movq	%r12, %rsi
	addq	%rdx, %rcx
	movq	-56(%rsp), %rdx
	imulq	%r15, %rsi
	movq	%rcx, -96(%rsp)
	movq	%rdi, %rcx
	imulq	%rdx, %r9
	imulq	%r10, %rcx
	imulq	%rdx, %r12
	addq	%r9, %rsi
	movq	%rbx, %r9
	addq	%rsi, %rcx
	movq	%rbp, %rsi
	imulq	%r8, %rsi
	addq	%rcx, %rsi
	movq	%rbx, %rcx
	imulq	%r11, %rcx
	addq	%rsi, %rcx
	movq	%rdi, %rsi
	imulq	%r15, %rsi
	addq	%r14, %rcx
	movq	%rcx, -88(%rsp)
	movq	%rbp, %rcx
	addq	%r12, %rsi
	imulq	%r10, %rcx
	imulq	%r8, %r9
	imulq	%rdx, %rdi
	addq	%rsi, %rcx
	imulq	%r13, %r8
	movq	%rbp, %rsi
	imulq	%r15, %rsi
	addq	%rcx, %r9
	movq	%rbx, %rcx
	imulq	%r10, %rcx
	imulq	%r13, %r11
	addq	%rdi, %rsi
	movq	8(%rsp), %rdi
	imulq	%rdx, %rbp
	addq	%rsi, %rcx
	imulq	%r13, %r10
	movq	24(%rsp), %rsi
	leaq	(%rcx,%r8), %r8
	addq	%r11, %r9
	movq	%r8, -64(%rsp)
	movq	%rbx, %r8
	imulq	%rdx, %rbx
	imulq	%r15, %r8
	imulq	%r13, %r15
	imulq	%r13, %rdx
	addq	%rbp, %r8
	leaq	(%rbx,%r15), %r12
	movq	-8(%rsp), %rbx
	movq	40(%rsp), %r15
	addq	%r10, %r8
	movq	%r12, -56(%rsp)
	movq	56(%rsp), %r10
	movq	%rdx, %r14
	leaq	1048576(%rbx), %rcx
	movq	%rcx, %r11
	andq	$-2097152, %rcx
	sarq	$21, %r11
	subq	%rcx, %rbx
	leaq	1048576(%rdi), %rcx
	movq	%r11, %r13
	movq	(%rsp), %r11
	movq	%rcx, %r12
	movq	%rbx, -48(%rsp)
	andq	$-2097152, %rcx
	sarq	$21, %r12
	addq	%r11, %r13
	movq	16(%rsp), %r11
	subq	%rcx, %rdi
	leaq	1048576(%rsi), %rcx
	movq	%rdi, -40(%rsp)
	movq	64(%rsp), %rdi
	addq	%r11, %r12
	movq	%rcx, %r11
	andq	$-2097152, %rcx
	sarq	$21, %r11
	movq	%r11, %rbp
	movq	32(%rsp), %r11
	addq	%r11, %rbp
	subq	%rcx, %rsi
	leaq	1048576(%r15), %rcx
	movq	%rcx, %r11
	andq	$-2097152, %rcx
	movq	%rsi, -32(%rsp)
	sarq	$21, %r11
	subq	%rcx, %r15
	leaq	1048576(%r10), %rcx
	movq	%r11, %rbx
	movq	48(%rsp), %r11
	movq	%r15, -24(%rsp)
	addq	%r11, %rbx
	movq	%rcx, %r11
	andq	$-2097152, %rcx
	subq	%rcx, %r10
	sarq	$21, %r11
	movq	%r10, -16(%rsp)
	movq	72(%rsp), %rsi
	addq	%rdi, %r11
	movq	-80(%rsp), %r15
	movq	-104(%rsp), %r10
	leaq	1048576(%rsi), %rcx
	movq	-112(%rsp), %rdx
	movq	%rcx, %rdi
	andq	$-2097152, %rcx
	subq	%rcx, %rsi
	sarq	$21, %rdi
	leaq	1048576(%r15), %rcx
	addq	%r10, %rdi
	movq	%rcx, %r10
	andq	$-2097152, %rcx
	movq	%rsi, -104(%rsp)
	subq	%rcx, %r15
	sarq	$21, %r10
	movq	%r15, -80(%rsp)
	movq	%r10, %rsi
	movq	-120(%rsp), %r15
	movq	-72(%rsp), %r10
	addq	%r10, %rsi
	movq	%r15, %r10
	addq	$1048576, %r10
	movq	%r10, %rcx
	andq	$-2097152, %r10
	sarq	$21, %rcx
	subq	%r10, %r15
	addq	%rdx, %rcx
	movq	%r15, -72(%rsp)
	movq	-88(%rsp), %rdx
	movq	%rcx, -112(%rsp)
	movq	-96(%rsp), %rcx
	leaq	1048576(%rcx), %r15
	movq	%r15, %r10
	andq	$-2097152, %r15
	sarq	$21, %r10
	addq	%rdx, %r10
	movq	%rcx, %rdx
	movq	-64(%rsp), %rcx
	subq	%r15, %rdx
	movq	%rdx, -96(%rsp)
	leaq	1048576(%r9), %rdx
	movq	%rdx, %r15
	andq	$-2097152, %rdx
	subq	%rdx, %r9
	sarq	$21, %r15
	movq	%r9, -88(%rsp)
	leaq	1048576(%r8), %r9
	addq	%rcx, %r15
	movq	-56(%rsp), %rcx
	movq	%r9, %rdx
	sarq	$21, %rdx
	addq	%rcx, %rdx
	andq	$-2097152, %r9
	movq	-40(%rsp), %rcx
	subq	%r9, %r8
	leaq	1048576(%r14), %r9
	movq	%rdx, -120(%rsp)
	movq	%r8, -64(%rsp)
	movq	%r9, %r8
	andq	$-2097152, %r9
	subq	%r9, %r14
	leaq	1048576(%r13), %r9
	sarq	$21, %r8
	movq	%r9, %rdx
	andq	$-2097152, %r9
	movq	%r14, -56(%rsp)
	subq	%r9, %r13
	sarq	$21, %rdx
	leaq	1048576(%r12), %r9
	movq	%r13, -8(%rsp)
	leaq	(%rdx,%rcx), %rdx
	movq	%r9, %r13
	movq	-32(%rsp), %rcx
	andq	$-2097152, %r9
	sarq	$21, %r13
	movq	%rdx, -40(%rsp)
	subq	%r9, %r12
	leaq	1048576(%rbp), %r9
	addq	%rcx, %r13
	movq	-24(%rsp), %rcx
	movq	%r12, (%rsp)
	movq	%r9, %r12
	andq	$-2097152, %r9
	subq	%r9, %rbp
	sarq	$21, %r12
	leaq	1048576(%rbx), %r9
	movq	%r13, -32(%rsp)
	addq	%rcx, %r12
	movq	%rbp, 8(%rsp)
	movq	-16(%rsp), %rcx
	movq	%r9, %rbp
	sarq	$21, %rbp
	andq	$-2097152, %r9
	movq	%r12, -24(%rsp)
	subq	%r9, %rbx
	leaq	0(%rbp,%rcx), %r12
	leaq	1048576(%r11), %r9
	movq	-104(%rsp), %rcx
	movq	%r12, -16(%rsp)
	movq	%r9, %r12
	andq	$-2097152, %r9
	sarq	$21, %r12
	subq	%r9, %r11
	movq	%rbx, 16(%rsp)
	leaq	1048576(%rdi), %r9
	movq	%r12, %rbx
	movq	%r11, -104(%rsp)
	movq	%r9, %r13
	movq	-112(%rsp), %r11
	addq	%rcx, %rbx
	andq	$-2097152, %r9
	movq	-80(%rsp), %rcx
	sarq	$21, %r13
	subq	%r9, %rdi
	leaq	1048576(%rsi), %r9
	movq	-88(%rsp), %r14
	addq	%rcx, %r13
	movq	%r9, %r12
	movq	-72(%rsp), %rcx
	andq	$-2097152, %r9
	subq	%r9, %rsi
	sarq	$21, %r12
	leaq	1048576(%r11), %r9
	addq	%rcx, %r12
	movq	%r9, %rcx
	sarq	$21, %rcx
	movq	%rcx, %rbp
	movq	-96(%rsp), %rcx
	addq	%rcx, %rbp
	andq	$-2097152, %r9
	movq	%r11, %rcx
	subq	%r9, %rcx
	leaq	1048576(%r10), %r9
	movq	%r9, %r11
	andq	$-2097152, %r9
	subq	%r9, %r10
	leaq	1048576(%r15), %r9
	sarq	$21, %r11
	movq	%r9, %rdx
	addq	%r14, %r11
	movq	%r10, -112(%rsp)
	movq	-64(%rsp), %r14
	sarq	$21, %rdx
	andq	$-2097152, %r9
	movq	%rdx, %r10
	movq	-120(%rsp), %rdx
	subq	%r9, %r15
	addq	%r14, %r10
	leaq	1048576(%rdx), %r14
	movq	%r14, %rdx
	andq	$-2097152, %r14
	sarq	$21, %rdx
	movq	%rdx, %r9
	movq	-56(%rsp), %rdx
	addq	%rdx, %r9
	movq	-120(%rsp), %rdx
	subq	%r14, %rdx
	imulq	$666643, %r8, %r14
	addq	%r14, %rdi
	imulq	$470296, %r8, %r14
	addq	%r14, %r13
	imulq	$654183, %r8, %r14
	addq	%rsi, %r14
	imulq	$-997805, %r8, %rsi
	addq	%rsi, %r12
	imulq	$136657, %r8, %rsi
	imulq	$-683901, %r8, %r8
	addq	%rcx, %rsi
	imulq	$666643, %r9, %rcx
	addq	%rbp, %r8
	addq	%rbx, %rcx
	imulq	$470296, %r9, %rbx
	addq	%rbx, %rdi
	imulq	$654183, %r9, %rbx
	addq	%r13, %rbx
	imulq	$136657, %r9, %r13
	imulq	$-997805, %r9, %rbp
	imulq	$-683901, %r9, %r9
	addq	%r13, %r12
	imulq	$470296, %rdx, %r13
	addq	%r14, %rbp
	movq	-104(%rsp), %r14
	addq	%rsi, %r9
	imulq	$666643, %rdx, %rsi
	addq	%rcx, %r13
	imulq	$654183, %rdx, %rcx
	addq	%r14, %rsi
	movq	16(%rsp), %r14
	addq	%rcx, %rdi
	imulq	$-997805, %rdx, %rcx
	addq	%rcx, %rbx
	imulq	$136657, %rdx, %rcx
	imulq	$-683901, %rdx, %rdx
	addq	%rbp, %rcx
	imulq	$666643, %r10, %rbp
	addq	%r12, %rdx
	movq	-16(%rsp), %r12
	addq	%r12, %rbp
	imulq	$470296, %r10, %r12
	addq	%rsi, %r12
	imulq	$654183, %r10, %rsi
	addq	%rsi, %r13
	imulq	$-997805, %r10, %rsi
	addq	%rsi, %rdi
	imulq	$136657, %r10, %rsi
	imulq	$-683901, %r10, %r10
	addq	%rbx, %rsi
	addq	%rcx, %r10
	imulq	$666643, %r15, %rcx
	addq	%r14, %rcx
	imulq	$470296, %r15, %rbx
	movq	-24(%rsp), %r14
	addq	%rbp, %rbx
	imulq	$654183, %r15, %rbp
	addq	%r12, %rbp
	imulq	$-997805, %r15, %r12
	addq	%r13, %r12
	imulq	$136657, %r15, %r13
	imulq	$-683901, %r15, %r15
	addq	%r13, %rdi
	imulq	$470296, %r11, %r13
	addq	%rsi, %r15
	imulq	$666643, %r11, %rsi
	addq	%rcx, %r13
	imulq	$654183, %r11, %rcx
	addq	%r14, %rsi
	imulq	$136657, %r11, %r14
	addq	%rbx, %rcx
	imulq	$-997805, %r11, %rbx
	imulq	$-683901, %r11, %r11
	addq	%r12, %r14
	addq	%rbx, %rbp
	addq	%rdi, %r11
	leaq	1048576(%rsi), %rdi
	movq	%rdi, %rbx
	andq	$-2097152, %rdi
	subq	%rdi, %rsi
	sarq	$21, %rbx
	movq	%rsi, %r12
	leaq	1048576(%rcx), %rsi
	addq	%r13, %rbx
	movq	%rsi, %rdi
	andq	$-2097152, %rsi
	subq	%rsi, %rcx
	sarq	$21, %rdi
	movq	%rcx, %r13
	leaq	1048576(%r14), %rcx
	addq	%rdi, %rbp
	movq	%rcx, %rsi
	sarq	$21, %rsi
	addq	%rsi, %r11
	andq	$-2097152, %rcx
	subq	%rcx, %r14
	leaq	1048576(%r15), %rcx
	movq	%rcx, %rdi
	andq	$-2097152, %rcx
	subq	%rcx, %r15
	leaq	1048576(%rdx), %rcx
	sarq	$21, %rdi
	movq	%rcx, %rsi
	andq	$-2097152, %rcx
	addq	%r10, %rdi
	movq	-112(%rsp), %r10
	sarq	$21, %rsi
	subq	%rcx, %rdx
	addq	%r9, %rsi
	leaq	1048576(%r8), %r9
	movq	%r9, %rcx
	andq	$-2097152, %r9
	sarq	$21, %rcx
	subq	%r9, %r8
	addq	%r10, %rcx
	leaq	1048576(%rbx), %r10
	movq	%r10, %r9
	andq	$-2097152, %r10
	sarq	$21, %r9
	subq	%r10, %rbx
	addq	%r13, %r9
	leaq	1048576(%rbp), %r13
	movq	%r13, %r10
	andq	$-2097152, %r13
	sarq	$21, %r10
	subq	%r13, %rbp
	addq	%r14, %r10
	leaq	1048576(%r11), %r14
	movq	%r14, %r13
	andq	$-2097152, %r14
	subq	%r14, %r11
	sarq	$21, %r13
	leaq	1048576(%rdi), %r14
	addq	%r15, %r13
	movq	%r14, %r15
	andq	$-2097152, %r14
	subq	%r14, %rdi
	sarq	$21, %r15
	leaq	1048576(%rsi), %r14
	addq	%r15, %rdx
	movq	%r14, %r15
	sarq	$21, %r15
	addq	%r15, %r8
	andq	$-2097152, %r14
	movq	8(%rsp), %r15
	subq	%r14, %rsi
	imulq	$666643, %rcx, %r14
	addq	%r15, %r14
	imulq	$470296, %rcx, %r15
	addq	%r15, %r12
	imulq	$654183, %rcx, %r15
	addq	%r15, %rbx
	imulq	$-997805, %rcx, %r15
	addq	%r9, %r15
	imulq	$136657, %rcx, %r9
	imulq	$-683901, %rcx, %rcx
	addq	%rbp, %r9
	movq	-32(%rsp), %rbp
	addq	%r10, %rcx
	imulq	$666643, %r8, %r10
	addq	%rbp, %r10
	imulq	$470296, %r8, %rbp
	addq	%r14, %rbp
	imulq	$654183, %r8, %r14
	addq	%r14, %r12
	imulq	$-997805, %r8, %r14
	addq	%r14, %rbx
	imulq	$136657, %r8, %r14
	imulq	$-683901, %r8, %r8
	addq	%r15, %r14
	imulq	$666643, %rsi, %r15
	addq	%r9, %r8
	movq	(%rsp), %r9
	addq	%r9, %r15
	imulq	$470296, %rsi, %r9
	addq	%r9, %r10
	imulq	$654183, %rsi, %r9
	addq	%r9, %rbp
	imulq	$-997805, %rsi, %r9
	addq	%r9, %r12
	imulq	$136657, %rsi, %r9
	imulq	$-683901, %rsi, %rsi
	addq	%rbx, %r9
	imulq	$666643, %rdx, %rbx
	addq	%r14, %rsi
	movq	-40(%rsp), %r14
	addq	%r14, %rbx
	imulq	$470296, %rdx, %r14
	addq	%r15, %r14
	imulq	$654183, %rdx, %r15
	addq	%r10, %r15
	imulq	$-997805, %rdx, %r10
	addq	%r10, %rbp
	imulq	$136657, %rdx, %r10
	imulq	$-683901, %rdx, %rdx
	addq	%r12, %r10
	imulq	$666643, %rdi, %r12
	addq	%r9, %rdx
	movq	-8(%rsp), %r9
	addq	%r9, %r12
	imulq	$470296, %rdi, %r9
	addq	%r9, %rbx
	imulq	$654183, %rdi, %r9
	addq	%r9, %r14
	imulq	$-997805, %rdi, %r9
	addq	%r9, %r15
	imulq	$136657, %rdi, %r9
	imulq	$-683901, %rdi, %rdi
	addq	%rbp, %r9
	movq	-48(%rsp), %rbp
	addq	%r10, %rdi
	imulq	$666643, %r13, %r10
	addq	%rbp, %r10
	imulq	$470296, %r13, %rbp
	addq	%r12, %rbp
	imulq	$654183, %r13, %r12
	addq	%r12, %rbx
	imulq	$-997805, %r13, %r12
	addq	%r14, %r12
	imulq	$136657, %r13, %r14
	imulq	$-683901, %r13, %r13
	addq	%r15, %r14
	addq	%r9, %r13
	leaq	1048576(%r10), %r9
	movq	%r9, %r15
	andq	$-2097152, %r9
	sarq	$21, %r15
	subq	%r9, %r10
	leaq	1048576(%rbx), %r9
	addq	%r15, %rbp
	movq	%r9, %r15
	andq	$-2097152, %r9
	sarq	$21, %r15
	subq	%r9, %rbx
	leaq	1048576(%r14), %r9
	addq	%r15, %r12
	movq	%r9, %r15
	andq	$-2097152, %r9
	sarq	$21, %r15
	subq	%r9, %r14
	leaq	1048576(%rdi), %r9
	addq	%r15, %r13
	movq	%r9, %r15
	andq	$-2097152, %r9
	subq	%r9, %rdi
	sarq	$21, %r15
	leaq	1048576(%rsi), %r9
	addq	%rdx, %r15
	movq	%r9, %rdx
	andq	$-2097152, %r9
	sarq	$21, %rdx
	subq	%r9, %rsi
	addq	%r8, %rdx
	leaq	1048576(%rcx), %r8
	movq	%r8, %r9
	sarq	$21, %r9
	addq	%r11, %r9
	andq	$-2097152, %r8
	subq	%r8, %rcx
	leaq	1048576(%rbp), %r8
	movq	%r8, %r11
	andq	$-2097152, %r8
	subq	%r8, %rbp
	sarq	$21, %r11
	leaq	1048576(%r12), %r8
	addq	%r11, %rbx
	movq	%r8, %r11
	andq	$-2097152, %r8
	subq	%r8, %r12
	sarq	$21, %r11
	leaq	1048576(%r13), %r8
	addq	%r11, %r14
	movq	%r8, %r11
	andq	$-2097152, %r8
	subq	%r8, %r13
	sarq	$21, %r11
	leaq	1048576(%r15), %r8
	addq	%r11, %rdi
	movq	%r8, %r11
	andq	$-2097152, %r8
	subq	%r8, %r15
	sarq	$21, %r11
	leaq	1048576(%rdx), %r8
	addq	%r11, %rsi
	movq	%r8, %r11
	andq	$-2097152, %r8
	sarq	$21, %r11
	subq	%r8, %rdx
	addq	%r11, %rcx
	leaq	1048576(%r9), %r11
	movq	%r11, %r8
	andq	$-2097152, %r11
	sarq	$21, %r8
	subq	%r11, %r9
	imulq	$666643, %r8, %r11
	addq	%r11, %r10
	imulq	$470296, %r8, %r11
	addq	%rbp, %r11
	imulq	$654183, %r8, %rbp
	addq	%rbp, %rbx
	imulq	$-997805, %r8, %rbp
	addq	%r12, %rbp
	imulq	$136657, %r8, %r12
	imulq	$-683901, %r8, %r8
	addq	%r14, %r12
	addq	%r13, %r8
	movq	%r10, %r13
	sarq	$21, %r13
	addq	%r11, %r13
	movq	%r10, %r11
	movq	%r13, %r10
	andl	$2097151, %r11d
	sarq	$21, %r10
	addq	%rbx, %r10
	movq	%r13, %rbx
	movq	%r10, %r13
	andl	$2097151, %r10d
	andl	$2097151, %ebx
	sarq	$21, %r13
	addq	%rbp, %r13
	movq	%r10, %rbp
	movq	%r13, %r10
	sarq	$21, %r10
	addq	%r12, %r10
	movq	%r13, %r12
	movq	%r10, %r13
	andl	$2097151, %r12d
	sarq	$21, %r13
	addq	%r8, %r13
	movq	%r10, %r8
	movq	%r13, %r10
	andl	$2097151, %r8d
	sarq	$21, %r10
	addq	%rdi, %r10
	movq	%r13, %rdi
	movq	%r10, %r13
	andl	$2097151, %edi
	andl	$2097151, %r10d
	sarq	$21, %r13
	addq	%r15, %r13
	movq	%r13, %r14
	andl	$2097151, %r13d
	sarq	$21, %r14
	addq	%r14, %rsi
	movq	%rsi, %r14
	sarq	$21, %r14
	addq	%rdx, %r14
	andl	$2097151, %esi
	movq	%r14, %rdx
	andl	$2097151, %r14d
	sarq	$21, %rdx
	addq	%rcx, %rdx
	movq	%rdx, %rcx
	andl	$2097151, %edx
	sarq	$21, %rcx
	addq	%r9, %rcx
	movq	%rdx, %r9
	movq	%rcx, %r15
	andl	$2097151, %ecx
	sarq	$21, %r15
	imulq	$666643, %r15, %rdx
	addq	%r11, %rdx
	imulq	$470296, %r15, %r11
	addq	%rbx, %r11
	imulq	$654183, %r15, %rbx
	addq	%rbx, %rbp
	imulq	$-997805, %r15, %rbx
	addq	%r12, %rbx
	imulq	$136657, %r15, %r12
	imulq	$-683901, %r15, %r15
	addq	%r8, %r12
	movq	%rdx, %r8
	andl	$2097151, %edx
	sarq	$21, %r8
	addq	%r15, %rdi
	movq	%rdx, %r15
	addq	%r8, %r11
	movw	%r15w, (%rax)
	movq	%r11, %rdx
	andl	$2097151, %r11d
	sarq	$21, %rdx
	addq	%rbp, %rdx
	movq	%rdx, %rbp
	sarq	$21, %rbp
	addq	%rbx, %rbp
	movq	%rdx, %rbx
	movq	%rbp, %r8
	andl	$2097151, %ebx
	sarq	$21, %r8
	addq	%r12, %r8
	andl	$2097151, %ebp
	sarq	$16, %r15
	movq	%r8, %rdx
	andl	$2097151, %r8d
	sarq	$21, %rdx
	addq	%rdi, %rdx
	movq	%rdx, %rdi
	andl	$2097151, %edx
	sarq	$21, %rdi
	addq	%r10, %rdi
	movq	%rdx, %r10
	movq	%rdi, %r12
	andl	$2097151, %edi
	sarq	$21, %r12
	addq	%r13, %r12
	movq	%r12, %rdx
	andl	$2097151, %r12d
	sarq	$21, %rdx
	addq	%rdx, %rsi
	movq	%rsi, %rdx
	andl	$2097151, %esi
	sarq	$21, %rdx
	addq	%r14, %rdx
	movq	%rdx, %r13
	andl	$2097151, %edx
	sarq	$21, %r13
	addq	%r9, %r13
	movq	%r13, %r9
	sarq	$21, %r9
	addq	%rcx, %r9
	movq	%r13, %rcx
	movq	%r11, %r13
	salq	$5, %r13
	andl	$2097151, %ecx
	orl	%r13d, %r15d
	movq	%r11, %r13
	sarq	$3, %r13
	movb	%r15b, 2(%rax)
	movb	%r13b, 3(%rax)
	movq	%r11, %r13
	sarq	$19, %r11
	sarq	$11, %r13
	movb	%r13b, 4(%rax)
	leaq	0(,%rbx,4), %r13
	orl	%r13d, %r11d
	movb	%r11b, 5(%rax)
	movq	%rbx, %r11
	sarq	$14, %rbx
	sarq	$6, %r11
	movb	%r11b, 6(%rax)
	movq	%rbp, %r11
	salq	$7, %r11
	orl	%r11d, %ebx
	movq	%rbp, %r11
	sarq	%r11
	movb	%bl, 7(%rax)
	movb	%r11b, 8(%rax)
	movq	%rbp, %r11
	sarq	$17, %rbp
	sarq	$9, %r11
	movb	%r11b, 9(%rax)
	movq	%r8, %r11
	salq	$4, %r11
	orl	%r11d, %ebp
	movq	%r8, %r11
	sarq	$4, %r11
	movb	%bpl, 10(%rax)
	movb	%r11b, 11(%rax)
	movq	%r8, %r11
	sarq	$20, %r8
	sarq	$12, %r11
	movb	%r11b, 12(%rax)
	leaq	(%r10,%r10), %r11
	orl	%r11d, %r8d
	movw	%si, 21(%rax)
	sarq	$16, %rsi
	movb	%r8b, 13(%rax)
	movq	%r10, %r8
	sarq	$15, %r10
	sarq	$7, %r8
	movb	%r8b, 14(%rax)
	movq	%rdi, %r8
	salq	$6, %r8
	orl	%r8d, %r10d
	movq	%rdi, %r8
	sarq	$2, %r8
	movb	%r10b, 15(%rax)
	movb	%r8b, 16(%rax)
	movq	%rdi, %r8
	sarq	$18, %rdi
	sarq	$10, %r8
	movb	%r8b, 17(%rax)
	leaq	0(,%r12,8), %r8
	orl	%r8d, %edi
	movb	%dil, 18(%rax)
	movq	%r12, %rdi
	sarq	$13, %r12
	sarq	$5, %rdi
	movb	%r12b, 20(%rax)
	movb	%dil, 19(%rax)
	movq	%rdx, %rdi
	salq	$5, %rdi
	orl	%edi, %esi
	movb	%sil, 23(%rax)
	movq	%rdx, %rsi
	sarq	$3, %rsi
	movb	%sil, 24(%rax)
	movq	%rdx, %rsi
	sarq	$19, %rdx
	sarq	$11, %rsi
	movb	%sil, 25(%rax)
	leaq	0(,%rcx,4), %rsi
	orl	%esi, %edx
	movb	%dl, 26(%rax)
	movq	%rcx, %rdx
	sarq	$14, %rcx
	sarq	$6, %rdx
	movb	%dl, 27(%rax)
	movq	%r9, %rdx
	salq	$7, %rdx
	orl	%edx, %ecx
	movq	%r9, %rdx
	sarq	%rdx
	movb	%cl, 28(%rax)
	movb	%dl, 29(%rax)
	movq	%r9, %rdx
	sarq	$9, %rdx
	sarq	$17, %r9
	movb	%dl, 30(%rax)
	movb	%r9b, 31(%rax)
	addq	$80, %rsp
	.cfi_def_cfa_offset 56
	popq	%rbx
	.cfi_def_cfa_offset 48
	popq	%rbp
	.cfi_def_cfa_offset 40
	popq	%r12
	.cfi_def_cfa_offset 32
	popq	%r13
	.cfi_def_cfa_offset 24
	popq	%r14
	.cfi_def_cfa_offset 16
	popq	%r15
	.cfi_def_cfa_offset 8
	ret
	.cfi_endproc
.LFE84:
	.size	sc_muladd, .-sc_muladd
	.p2align 4
	.type	sha512_block_data_order, @function
sha512_block_data_order:
.LFB47:
	.cfi_startproc
	pushq	%r15
	.cfi_def_cfa_offset 16
	.cfi_offset 15, -16
	salq	$7, %rdx
	pushq	%r14
	.cfi_def_cfa_offset 24
	.cfi_offset 14, -24
	pushq	%r13
	.cfi_def_cfa_offset 32
	.cfi_offset 13, -32
	pushq	%r12
	.cfi_def_cfa_offset 40
	.cfi_offset 12, -40
	movq	%rsi, %r12
	pushq	%rbp
	.cfi_def_cfa_offset 48
	.cfi_offset 6, -48
	pushq	%rbx
	.cfi_def_cfa_offset 56
	.cfi_offset 3, -56
	subq	$72, %rsp
	.cfi_def_cfa_offset 128
	movq	32(%rdi), %rcx
	movq	56(%rdi), %rax
	movq	%rdi, 64(%rsp)
	movq	(%rdi), %r13
	movq	%rcx, 8(%rsp)
	movq	40(%rdi), %rcx
	movq	%rax, 32(%rsp)
	leaq	(%rsi,%rdx), %rax
	movq	%rcx, 16(%rsp)
	movq	48(%rdi), %rcx
	movq	%rax, 56(%rsp)
	movq	%rcx, 24(%rsp)
	movq	8(%rdi), %rcx
	movq	%rcx, -16(%rsp)
	movq	16(%rdi), %rcx
	movq	%rcx, -8(%rsp)
	movq	24(%rdi), %rcx
	movq	%rcx, (%rsp)
	.p2align 4,,10
	.p2align 3
.L8:
	movq	8(%rsp), %rdi
	movq	(%r12), %rax
	movq	16(%rsp), %rbx
	movq	24(%rsp), %r10
	bswap	%rax
	movq	%rdi, %rcx
	movq	%rax, %rsi
	movq	%rdi, %rdx
	movq	%rax, -40(%rsp)
	movq	%rdi, %rax
	rorq	$14, %rcx
	andq	%rbx, %rdx
	rorq	$18, %rax
	movq	-16(%rsp), %r14
	movq	-8(%rsp), %r15
	xorq	%rax, %rcx
	movq	%rdi, %rax
	rolq	$23, %rax
	xorq	%rax, %rcx
	movq	32(%rsp), %rax
	addq	%rsi, %rax
	movabsq	$4794697086780616226, %rsi
	addq	%rsi, %rax
	movq	%r14, %rsi
	addq	%rax, %rcx
	movq	%rdi, %rax
	andq	%r15, %rsi
	notq	%rax
	andq	%r10, %rax
	xorq	%rdx, %rax
	movq	%r13, %rdx
	addq	%rax, %rcx
	movq	%r13, %rax
	rolq	$30, %rdx
	rorq	$28, %rax
	xorq	%rdx, %rax
	movq	%r13, %rdx
	rolq	$25, %rdx
	xorq	%rdx, %rax
	movq	%r14, %rdx
	xorq	%r15, %rdx
	andq	%r13, %rdx
	xorq	%rsi, %rdx
	movq	(%rsp), %rsi
	addq	%rdx, %rax
	leaq	(%rcx,%rsi), %r9
	addq	%rax, %rcx
	movq	8(%r12), %rax
	movq	%r9, %rdx
	movq	%rcx, %r8
	bswap	%rax
	movq	%rax, %rsi
	movq	%rax, -120(%rsp)
	movq	%r9, %rax
	rorq	$14, %rax
	rorq	$18, %rdx
	xorq	%rax, %rdx
	movq	%r9, %rax
	rolq	$23, %rax
	xorq	%rax, %rdx
	leaq	(%rsi,%r10), %rax
	movq	%rbx, %r10
	movabsq	$8158064640168781261, %rsi
	addq	%rsi, %rax
	movq	%rdi, %rsi
	addq	%rax, %rdx
	movq	%r9, %rax
	andq	%r9, %rsi
	notq	%rax
	andq	%rbx, %rax
	movq	%rdi, %rbx
	movq	%r14, %rdi
	xorq	%rsi, %rax
	movq	%rcx, %rsi
	andq	%r13, %rdi
	andq	%r13, %r8
	addq	%rax, %rdx
	movq	%rcx, %rax
	rolq	$30, %rsi
	rorq	$28, %rax
	leaq	(%rdx,%r15), %r11
	movabsq	$4131703408338449720, %r15
	xorq	%rax, %rsi
	movq	%rcx, %rax
	rolq	$25, %rax
	xorq	%rax, %rsi
	movq	%r14, %rax
	xorq	%r13, %rax
	andq	%rcx, %rax
	xorq	%rdi, %rax
	addq	%rsi, %rax
	movq	%r11, %rsi
	addq	%rax, %rdx
	movq	16(%r12), %rax
	rorq	$18, %rsi
	movq	%rdx, %rbp
	bswap	%rax
	movq	%rax, %rdi
	movq	%rax, -112(%rsp)
	movq	%r11, %rax
	rorq	$14, %rax
	xorq	%rax, %rsi
	movq	%r11, %rax
	rolq	$23, %rax
	xorq	%rax, %rsi
	leaq	(%rdi,%r10), %rax
	movabsq	$-5349999486874862801, %rdi
	addq	%rdi, %rax
	movq	%r9, %rdi
	addq	%rax, %rsi
	movq	%r11, %rax
	andq	%r11, %rdi
	notq	%rax
	andq	%rbx, %rax
	xorq	%rdi, %rax
	movq	%rdx, %rdi
	addq	%rax, %rsi
	movq	%rdx, %rax
	rolq	$30, %rdi
	rorq	$28, %rax
	leaq	(%rsi,%r14), %r10
	xorq	%rax, %rdi
	movq	%rdx, %rax
	rolq	$25, %rax
	xorq	%rax, %rdi
	movq	%rcx, %rax
	xorq	%r13, %rax
	andq	%rdx, %rax
	xorq	%r8, %rax
	movq	%r11, %r8
	addq	%rdi, %rax
	movq	%r10, %rdi
	andq	%r10, %r8
	addq	%rax, %rsi
	movq	24(%r12), %rax
	rorq	$18, %rdi
	bswap	%rax
	movq	%rax, %r14
	movq	%rax, -104(%rsp)
	movq	%r10, %rax
	rorq	$14, %rax
	xorq	%rax, %rdi
	movq	%r10, %rax
	rolq	$23, %rax
	xorq	%rax, %rdi
	leaq	(%r14,%rbx), %rax
	movq	32(%r12), %r14
	movabsq	$-1606136188198331460, %rbx
	addq	%rbx, %rax
	movq	%rcx, %rbx
	addq	%rax, %rdi
	movq	%r10, %rax
	andq	%rdx, %rbx
	bswap	%r14
	notq	%rax
	movq	%r14, -96(%rsp)
	andq	%r9, %rax
	xorq	%r8, %rax
	movq	%rsi, %r8
	addq	%rax, %rdi
	movq	%rsi, %rax
	rolq	$30, %r8
	rorq	$28, %rax
	xorq	%rax, %r8
	movq	%rsi, %rax
	rolq	$25, %rax
	xorq	%rax, %r8
	movq	%rcx, %rax
	xorq	%rdx, %rax
	andq	%rsi, %rax
	xorq	%rbx, %rax
	addq	%rax, %r8
	leaq	(%rdi,%r13), %rax
	movq	%rax, %rbx
	addq	%r8, %rdi
	movq	%rax, %r8
	rorq	$14, %rbx
	rorq	$18, %r8
	xorq	%rbx, %r8
	movq	%rax, %rbx
	rolq	$23, %rbx
	xorq	%r8, %rbx
	leaq	(%r14,%r15), %r8
	movq	40(%r12), %r14
	movabsq	$6480981068601479193, %r15
	addq	%r9, %r8
	movq	%rax, %r9
	addq	%rbx, %r8
	notq	%r9
	movq	%r10, %rbx
	bswap	%r14
	andq	%r11, %r9
	andq	%rax, %rbx
	andq	%rsi, %rbp
	movq	%r14, -88(%rsp)
	xorq	%rbx, %r9
	movq	%rdi, %rbx
	addq	%r9, %r8
	movq	%rdi, %r9
	rolq	$30, %rbx
	rorq	$28, %r9
	addq	%r8, %rcx
	xorq	%r9, %rbx
	movq	%rdi, %r9
	rolq	$25, %r9
	xorq	%r9, %rbx
	movq	%rdx, %r9
	xorq	%rsi, %r9
	andq	%rdi, %r9
	xorq	%rbp, %r9
	movq	%rsi, %rbp
	addq	%rbx, %r9
	movq	%rcx, %rbx
	addq	%r9, %r8
	movq	%rcx, %r9
	rorq	$14, %rbx
	rorq	$18, %r9
	xorq	%rbx, %r9
	movq	%rcx, %rbx
	rolq	$23, %rbx
	xorq	%r9, %rbx
	leaq	(%r14,%r15), %r9
	movq	48(%r12), %r14
	movabsq	$-7908458776815382629, %r15
	addq	%r11, %r9
	movq	%rcx, %r11
	addq	%rbx, %r9
	notq	%r11
	movq	%rax, %rbx
	bswap	%r14
	andq	%rcx, %rbx
	andq	%r10, %r11
	movq	%r14, -80(%rsp)
	xorq	%rbx, %r11
	movq	%r8, %rbx
	addq	%r11, %r9
	movq	%r8, %r11
	rolq	$30, %rbx
	rorq	$28, %r11
	xorq	%r11, %rbx
	movq	%r8, %r11
	rolq	$25, %r11
	xorq	%r11, %rbx
	movq	%rsi, %r11
	xorq	%rdi, %r11
	andq	%rdi, %rbp
	addq	%r9, %rdx
	andq	%r8, %r11
	xorq	%rbp, %r11
	movq	%rdi, %rbp
	addq	%rbx, %r11
	movq	%rdx, %rbx
	andq	%r8, %rbp
	addq	%r11, %r9
	movq	%rdx, %r11
	rorq	$14, %rbx
	rorq	$18, %r11
	xorq	%rbx, %r11
	movq	%rdx, %rbx
	rolq	$23, %rbx
	xorq	%r11, %rbx
	leaq	(%r14,%r15), %r11
	movq	56(%r12), %r14
	movabsq	$-6116909921290321640, %r15
	addq	%r10, %r11
	movq	%rdx, %r10
	addq	%rbx, %r11
	notq	%r10
	movq	%rcx, %rbx
	bswap	%r14
	andq	%rdx, %rbx
	andq	%rax, %r10
	movq	%r14, -72(%rsp)
	xorq	%rbx, %r10
	movq	%r9, %rbx
	addq	%r10, %r11
	movq	%r9, %r10
	rolq	$30, %rbx
	rorq	$28, %r10
	addq	%r11, %rsi
	xorq	%r10, %rbx
	movq	%r9, %r10
	rolq	$25, %r10
	xorq	%r10, %rbx
	movq	%rdi, %r10
	xorq	%r8, %r10
	andq	%r9, %r10
	xorq	%rbp, %r10
	movq	%r8, %rbp
	addq	%rbx, %r10
	movq	%rsi, %rbx
	addq	%r10, %r11
	movq	%rsi, %r10
	rorq	$14, %rbx
	rorq	$18, %r10
	xorq	%rbx, %r10
	movq	%rsi, %rbx
	andq	%r9, %rbp
	rolq	$23, %rbx
	xorq	%r10, %rbx
	leaq	(%r14,%r15), %r10
	addq	%rax, %r10
	movq	%rsi, %rax
	addq	%rbx, %r10
	notq	%rax
	movq	%rdx, %rbx
	andq	%rsi, %rbx
	andq	%rcx, %rax
	xorq	%rbx, %rax
	movq	%r11, %rbx
	addq	%rax, %r10
	movq	%r11, %rax
	rolq	$30, %rbx
	rorq	$28, %rax
	addq	%r10, %rdi
	xorq	%rax, %rbx
	movq	%r11, %rax
	rolq	$25, %rax
	xorq	%rax, %rbx
	movq	%r8, %rax
	xorq	%r9, %rax
	andq	%r11, %rax
	xorq	%rbp, %rax
	movq	%r9, %rbp
	addq	%rbx, %rax
	movq	%rdi, %rbx
	addq	%rax, %r10
	movq	64(%r12), %rax
	rorq	$14, %rbx
	bswap	%rax
	movq	%rax, %r15
	movq	%rax, -64(%rsp)
	movq	%rdi, %rax
	rorq	$18, %rax
	xorq	%rbx, %rax
	movq	%rdi, %rbx
	rolq	$23, %rbx
	xorq	%rax, %rbx
	movabsq	$-2880145864133508542, %rax
	addq	%r15, %rax
	addq	%rcx, %rax
	movq	%rdi, %rcx
	addq	%rbx, %rax
	notq	%rcx
	movq	%rsi, %rbx
	andq	%rdi, %rbx
	andq	%rdx, %rcx
	xorq	%rbx, %rcx
	movq	%r10, %rbx
	addq	%rcx, %rax
	movq	%r10, %rcx
	rolq	$30, %rbx
	andq	%r11, %rbp
	rorq	$28, %rcx
	addq	%rax, %r8
	xorq	%rcx, %rbx
	movq	%r10, %rcx
	rolq	$25, %rcx
	xorq	%rcx, %rbx
	movq	%r9, %rcx
	xorq	%r11, %rcx
	andq	%r10, %rcx
	xorq	%rbp, %rcx
	movq	%r11, %rbp
	addq	%rbx, %rcx
	movq	%r8, %rbx
	addq	%rcx, %rax
	movq	72(%r12), %rcx
	rorq	$14, %rbx
	bswap	%rcx
	movq	%rcx, %r14
	movq	%rcx, -56(%rsp)
	movq	%r8, %rcx
	rorq	$18, %rcx
	xorq	%rbx, %rcx
	movq	%r8, %rbx
	rolq	$23, %rbx
	xorq	%rcx, %rbx
	movabsq	$1334009975649890238, %rcx
	addq	%r14, %rcx
	addq	%rdx, %rcx
	movq	%r8, %rdx
	addq	%rbx, %rcx
	notq	%rdx
	movq	%rdi, %rbx
	andq	%r8, %rbx
	andq	%rsi, %rdx
	xorq	%rbx, %rdx
	movq	%rax, %rbx
	addq	%rdx, %rcx
	movq	%rax, %rdx
	rolq	$30, %rbx
	rorq	$28, %rdx
	xorq	%rdx, %rbx
	movq	%rax, %rdx
	rolq	$25, %rdx
	xorq	%rdx, %rbx
	movq	%r11, %rdx
	xorq	%r10, %rdx
	andq	%rax, %rdx
	andq	%r10, %rbp
	addq	%rcx, %r9
	xorq	%rbp, %rdx
	movq	%r10, %rbp
	addq	%rbx, %rdx
	movq	%r9, %rbx
	andq	%rax, %rbp
	addq	%rdx, %rcx
	movq	80(%r12), %rdx
	rorq	$18, %rbx
	bswap	%rdx
	movq	%rdx, %r15
	movq	%rdx, -48(%rsp)
	movq	%r9, %rdx
	rorq	$14, %rdx
	xorq	%rdx, %rbx
	movq	%r9, %rdx
	rolq	$23, %rdx
	xorq	%rdx, %rbx
	movabsq	$2608012711638119052, %rdx
	addq	%r15, %rdx
	addq	%rsi, %rdx
	movq	%r9, %rsi
	addq	%rbx, %rdx
	notq	%rsi
	movq	%r8, %rbx
	andq	%r9, %rbx
	andq	%rdi, %rsi
	xorq	%rbx, %rsi
	movq	%rcx, %rbx
	addq	%rsi, %rdx
	movq	%rcx, %rsi
	rolq	$30, %rbx
	rorq	$28, %rsi
	addq	%rdx, %r11
	xorq	%rsi, %rbx
	movq	%rcx, %rsi
	rolq	$25, %rsi
	xorq	%rsi, %rbx
	movq	%r10, %rsi
	xorq	%rax, %rsi
	andq	%rcx, %rsi
	xorq	%rbp, %rsi
	movq	%rax, %rbp
	addq	%rbx, %rsi
	movq	%r11, %rbx
	addq	%rsi, %rdx
	movq	88(%r12), %rsi
	rorq	$18, %rbx
	bswap	%rsi
	movq	%rsi, %r14
	movq	%rsi, -32(%rsp)
	movq	%r11, %rsi
	rorq	$14, %rsi
	xorq	%rsi, %rbx
	movq	%r11, %rsi
	rolq	$23, %rsi
	andq	%rcx, %rbp
	xorq	%rsi, %rbx
	movabsq	$6128411473006802146, %rsi
	addq	%r14, %rsi
	addq	%rdi, %rsi
	movq	%r11, %rdi
	addq	%rbx, %rsi
	notq	%rdi
	movq	%r9, %rbx
	andq	%r11, %rbx
	andq	%r8, %rdi
	xorq	%rbx, %rdi
	movq	%rdx, %rbx
	addq	%rdi, %rsi
	movq	%rdx, %rdi
	rolq	$30, %rbx
	rorq	$28, %rdi
	addq	%rsi, %r10
	xorq	%rdi, %rbx
	movq	%rdx, %rdi
	rolq	$25, %rdi
	xorq	%rdi, %rbx
	movq	%rax, %rdi
	xorq	%rcx, %rdi
	andq	%rdx, %rdi
	xorq	%rbp, %rdi
	movq	%rcx, %rbp
	addq	%rbx, %rdi
	movq	%r10, %rbx
	addq	%rdi, %rsi
	movq	96(%r12), %rdi
	rorq	$18, %rbx
	bswap	%rdi
	movq	%rdi, -24(%rsp)
	movq	%rdi, %r15
	movq	%r10, %rdi
	rorq	$14, %rdi
	movq	104(%r12), %r14
	movq	%r13, 48(%rsp)
	xorq	%rdi, %rbx
	movq	%r10, %rdi
	rolq	$23, %rdi
	bswap	%r14
	movq	%r14, 40(%rsp)
	movq	40(%rsp), %r13
	xorq	%rdi, %rbx
	movq	%r12, 40(%rsp)
	movabsq	$8268148722764581231, %rdi
	addq	%r15, %rdi
	movq	112(%r12), %r15
	addq	%r8, %rdi
	movq	%r10, %r8
	addq	%rbx, %rdi
	notq	%r8
	movq	%r11, %rbx
	bswap	%r15
	andq	%r10, %rbx
	andq	%r9, %r8
	xorq	%rbx, %r8
	movq	%rsi, %rbx
	addq	%r8, %rdi
	movq	%rsi, %r8
	rolq	$30, %rbx
	andq	%rdx, %rbp
	rorq	$28, %r8
	addq	%rdi, %rax
	xorq	%r8, %rbx
	movq	%rsi, %r8
	rolq	$25, %r8
	xorq	%r8, %rbx
	movq	%rcx, %r8
	xorq	%rdx, %r8
	andq	%rsi, %r8
	xorq	%rbp, %r8
	movq	%rdx, %rbp
	addq	%rbx, %r8
	movq	%rax, %rbx
	addq	%r8, %rdi
	movq	%rax, %r8
	rorq	$18, %rbx
	rorq	$14, %r8
	xorq	%r8, %rbx
	movq	%rax, %r8
	rolq	$23, %r8
	xorq	%r8, %rbx
	movabsq	$-9160688886553864527, %r8
	addq	%r14, %r8
	addq	%r9, %r8
	movq	%rax, %r9
	addq	%rbx, %r8
	notq	%r9
	movq	%r10, %rbx
	andq	%r11, %r9
	andq	%rax, %rbx
	xorq	%rbx, %r9
	movq	%rdi, %rbx
	addq	%r9, %r8
	movq	%rdi, %r9
	rolq	$30, %rbx
	rorq	$28, %r9
	xorq	%r9, %rbx
	movq	%rdi, %r9
	rolq	$25, %r9
	xorq	%r9, %rbx
	movq	%rdx, %r9
	xorq	%rsi, %r9
	andq	%rdi, %r9
	andq	%rsi, %rbp
	addq	%r8, %rcx
	xorq	%rbp, %r9
	movq	%rsi, %rbp
	addq	%rbx, %r9
	movq	%rcx, %rbx
	andq	%rdi, %rbp
	addq	%r9, %r8
	movq	%rcx, %r9
	rorq	$18, %rbx
	rorq	$14, %r9
	xorq	%r9, %rbx
	movq	%rcx, %r9
	rolq	$23, %r9
	xorq	%r9, %rbx
	movabsq	$-7215885187991268811, %r9
	addq	%r15, %r9
	addq	%r11, %r9
	movq	%rcx, %r11
	addq	%rbx, %r9
	notq	%r11
	movq	%rax, %rbx
	andq	%r10, %r11
	andq	%rcx, %rbx
	xorq	%rbx, %r11
	movq	%r8, %rbx
	addq	%r11, %r9
	movq	%r8, %r11
	rolq	$30, %rbx
	rorq	$28, %r11
	addq	%r9, %rdx
	xorq	%r11, %rbx
	movq	%r8, %r11
	rolq	$25, %r11
	xorq	%r11, %rbx
	movq	%rsi, %r11
	xorq	%rdi, %r11
	andq	%r8, %r11
	xorq	%rbp, %r11
	movq	%rdi, %rbp
	addq	%rbx, %r11
	movq	%rdx, %rbx
	addq	%r11, %r9
	movq	120(%r12), %r11
	rorq	$18, %rbx
	bswap	%r11
	movq	%r11, %r14
	movq	%rdx, %r11
	rorq	$14, %r11
	xorq	%r11, %rbx
	movq	%rdx, %r11
	rolq	$23, %r11
	andq	%r8, %rbp
	xorq	%r11, %rbx
	movabsq	$-4495734319001033068, %r11
	addq	%r14, %r11
	addq	%r10, %r11
	movq	%rdx, %r10
	addq	%rbx, %r11
	notq	%r10
	movq	%rcx, %rbx
	andq	%rdx, %rbx
	andq	%rax, %r10
	xorq	%rbx, %r10
	movq	%r9, %rbx
	addq	%r10, %r11
	movq	%r9, %r10
	rolq	$30, %rbx
	rorq	$28, %r10
	addq	%r11, %rsi
	xorq	%r10, %rbx
	movq	%r9, %r10
	rolq	$25, %r10
	xorq	%r10, %rbx
	movq	%rdi, %r10
	xorq	%r8, %r10
	andq	%r9, %r10
	xorq	%rbp, %r10
	addq	%rbx, %r10
	addq	%r10, %r11
	movl	$K512, %r10d
.L7:
	movq	-120(%rsp), %r12
	movq	%r12, %rbp
	movq	%r12, %rbx
	rorq	$8, %rbp
	rorq	%rbx
	xorq	%rbp, %rbx
	movq	%r12, %rbp
	shrq	$7, %rbp
	xorq	%rbp, %rbx
	movq	%r15, %rbp
	rolq	$3, %rbp
	movq	%rbp, %r12
	movq	%r15, %rbp
	rorq	$19, %rbp
	xorq	%r12, %rbp
	movq	%r15, %r12
	shrq	$6, %r12
	xorq	%r12, %rbp
	movq	%rsi, %r12
	addq	%rbp, %rbx
	movq	-56(%rsp), %rbp
	rolq	$23, %r12
	addq	%rbp, %rbx
	addq	%rbx, -40(%rsp)
	movq	%rsi, %rbx
	rorq	$18, %rbx
	movq	%rbx, %rbp
	movq	%rsi, %rbx
	rorq	$14, %rbx
	xorq	%rbp, %rbx
	xorq	%r12, %rbx
	movq	%rsi, %r12
	notq	%r12
	movq	%r12, %rbp
	movq	%rsi, %r12
	andq	%rdx, %r12
	andq	%rcx, %rbp
	xorq	%r12, %rbp
	movq	%r11, %r12
	addq	%rbp, %rbx
	movq	-40(%rsp), %rbp
	addq	128(%r10), %rbx
	rorq	$28, %r12
	addq	%rbp, %rbx
	movq	%r12, %rbp
	movq	%r9, %r12
	addq	%rbx, %rax
	movq	%r11, %rbx
	rolq	$30, %rbx
	xorq	%rbx, %rbp
	movq	%r11, %rbx
	rolq	$25, %rbx
	xorq	%rbx, %rbp
	movq	%r9, %rbx
	xorq	%r8, %rbx
	andq	%r11, %rbx
	andq	%r8, %r12
	addq	%rax, %rdi
	addq	136(%r10), %rcx
	xorq	%r12, %rbx
	addq	%rbp, %rbx
	addq	%rbx, %rax
	movq	-112(%rsp), %rbx
	movq	%rbx, %r12
	rorq	$8, %r12
	movq	%r12, %rbp
	movq	%rbx, %r12
	rorq	%rbx
	xorq	%rbp, %rbx
	movq	%r12, %rbp
	movq	-48(%rsp), %r12
	shrq	$7, %rbp
	xorq	%rbp, %rbx
	movq	%r14, %rbp
	addq	%r12, %rbx
	movq	-120(%rsp), %r12
	rorq	$19, %rbp
	addq	%r12, %rbx
	movq	%r14, %r12
	rolq	$3, %r12
	xorq	%r12, %rbp
	movq	%r14, %r12
	shrq	$6, %r12
	xorq	%r12, %rbp
	leaq	(%rbx,%rbp), %r12
	movq	%rdi, %rbx
	rorq	$18, %rbx
	movq	%r12, -120(%rsp)
	movq	%rdi, %r12
	movq	%rbx, %rbp
	movq	%rdi, %rbx
	rolq	$23, %r12
	rorq	$14, %rbx
	xorq	%rbp, %rbx
	movq	%r11, %rbp
	xorq	%rbx, %r12
	movq	-120(%rsp), %rbx
	addq	%rbx, %rcx
	movq	%rdi, %rbx
	addq	%rcx, %r12
	notq	%rbx
	movq	%rdi, %rcx
	andq	%rsi, %rcx
	andq	%rdx, %rbx
	xorq	%rcx, %rbx
	movq	%rax, %rcx
	addq	%rbx, %r12
	movq	%rax, %rbx
	rorq	$28, %rcx
	rolq	$30, %rbx
	xorq	%rcx, %rbx
	movq	%rax, %rcx
	rolq	$25, %rcx
	andq	%r9, %rbp
	addq	%r12, %r8
	addq	144(%r10), %rdx
	xorq	%rcx, %rbx
	movq	%r11, %rcx
	xorq	%r9, %rcx
	andq	%rax, %rcx
	xorq	%rbp, %rcx
	movq	-104(%rsp), %rbp
	addq	%rbx, %rcx
	addq	%rcx, %r12
	movq	%rbp, %rbx
	movq	%rbp, %rcx
	rorq	%rbx
	rorq	$8, %rcx
	xorq	%rbx, %rcx
	movq	%rbp, %rbx
	movq	-112(%rsp), %rbp
	shrq	$7, %rbx
	xorq	%rbx, %rcx
	movq	-32(%rsp), %rbx
	addq	%rbx, %rcx
	movq	-40(%rsp), %rbx
	addq	%rbp, %rcx
	movq	%rbx, %rbp
	rolq	$3, %rbx
	rorq	$19, %rbp
	xorq	%rbp, %rbx
	movq	-40(%rsp), %rbp
	shrq	$6, %rbp
	xorq	%rbp, %rbx
	movq	%r8, %rbp
	addq	%rbx, %rcx
	rorq	$14, %rbp
	movq	%rax, %rbx
	movq	%rcx, -112(%rsp)
	movq	%r8, %rcx
	rorq	$18, %rcx
	xorq	%rbp, %rcx
	movq	%r8, %rbp
	rolq	$23, %rbp
	xorq	%rcx, %rbp
	movq	-112(%rsp), %rcx
	addq	%rcx, %rdx
	addq	%rdx, %rbp
	movq	%r8, %rdx
	notq	%rdx
	movq	%rdx, %rcx
	movq	%rdi, %rdx
	andq	%r8, %rdx
	andq	%rsi, %rcx
	xorq	%rdx, %rcx
	movq	%r12, %rdx
	andq	%r11, %rbx
	addq	%rcx, %rbp
	movq	%r12, %rcx
	rorq	$28, %rdx
	rolq	$30, %rcx
	addq	%rbp, %r9
	xorq	%rdx, %rcx
	movq	%r12, %rdx
	rolq	$25, %rdx
	xorq	%rdx, %rcx
	movq	%rax, %rdx
	xorq	%r11, %rdx
	andq	%r12, %rdx
	xorq	%rbx, %rdx
	movq	-96(%rsp), %rbx
	addq	%rcx, %rdx
	addq	%rdx, %rbp
	movq	%rbx, %rcx
	movq	%rbx, %rdx
	rorq	%rcx
	rorq	$8, %rdx
	xorq	%rcx, %rdx
	movq	%rbx, %rcx
	movq	-24(%rsp), %rbx
	shrq	$7, %rcx
	xorq	%rcx, %rdx
	movq	-120(%rsp), %rcx
	addq	%rbx, %rdx
	movq	-104(%rsp), %rbx
	addq	%rbx, %rdx
	movq	%rcx, %rbx
	rolq	$3, %rcx
	rorq	$19, %rbx
	xorq	%rbx, %rcx
	movq	-120(%rsp), %rbx
	shrq	$6, %rbx
	xorq	%rbx, %rcx
	movq	%r9, %rbx
	addq	%rcx, %rdx
	rolq	$23, %rbx
	movq	%rdx, -104(%rsp)
	movq	%r9, %rdx
	rorq	$14, %rdx
	movq	%rdx, %rcx
	movq	%r9, %rdx
	rorq	$18, %rdx
	xorq	%rcx, %rdx
	xorq	%rdx, %rbx
	movq	-104(%rsp), %rdx
	addq	152(%r10), %rsi
	addq	%rdx, %rsi
	movq	%r9, %rdx
	addq	%rsi, %rbx
	notq	%rdx
	movq	%r8, %rsi
	andq	%r9, %rsi
	andq	%rdi, %rdx
	xorq	%rsi, %rdx
	movq	%rbp, %rsi
	addq	%rdx, %rbx
	rolq	$30, %rsi
	movq	%rbp, %rdx
	rorq	$28, %rdx
	movq	%rsi, %rcx
	movq	%rax, %rsi
	addq	%rbx, %r11
	xorq	%rdx, %rcx
	movq	%rbp, %rdx
	andq	%r12, %rsi
	rolq	$25, %rdx
	xorq	%rdx, %rcx
	movq	%rax, %rdx
	xorq	%r12, %rdx
	andq	%rbp, %rdx
	xorq	%rsi, %rdx
	movq	-88(%rsp), %rsi
	addq	%rcx, %rdx
	addq	%rdx, %rbx
	movq	%rsi, %rdx
	rorq	%rdx
	movq	%rdx, %rcx
	movq	%rsi, %rdx
	shrq	$7, %rsi
	rorq	$8, %rdx
	xorq	%rcx, %rdx
	movq	-112(%rsp), %rcx
	xorq	%rsi, %rdx
	movq	-96(%rsp), %rsi
	addq	%r13, %rdx
	addq	%rsi, %rdx
	movq	%rcx, %rsi
	rolq	$3, %rcx
	rorq	$19, %rsi
	xorq	%rsi, %rcx
	movq	-112(%rsp), %rsi
	shrq	$6, %rsi
	xorq	%rsi, %rcx
	leaq	(%rdx,%rcx), %rsi
	movq	%r11, %rcx
	movq	%r11, %rdx
	rorq	$14, %rcx
	rorq	$18, %rdx
	addq	160(%r10), %rdi
	movq	%rsi, -96(%rsp)
	xorq	%rcx, %rdx
	movq	%r11, %rcx
	addq	%rsi, %rdi
	rolq	$23, %rcx
	xorq	%rdx, %rcx
	movq	%r11, %rdx
	addq	%rdi, %rcx
	notq	%rdx
	movq	%r9, %rdi
	andq	%r11, %rdi
	andq	%r8, %rdx
	xorq	%rdi, %rdx
	movq	%rbx, %rdi
	addq	%rdx, %rcx
	rolq	$30, %rdi
	movq	%rbx, %rdx
	rorq	$28, %rdx
	movq	%rdi, %rsi
	movq	%r12, %rdi
	addq	%rcx, %rax
	xorq	%rdx, %rsi
	movq	%rbx, %rdx
	andq	%rbp, %rdi
	rolq	$25, %rdx
	xorq	%rdx, %rsi
	movq	%r12, %rdx
	xorq	%rbp, %rdx
	andq	%rbx, %rdx
	xorq	%rdi, %rdx
	movq	-80(%rsp), %rdi
	addq	%rsi, %rdx
	addq	%rdx, %rcx
	movq	%rdi, %rdx
	rorq	%rdx
	movq	%rdx, %rsi
	movq	%rdi, %rdx
	shrq	$7, %rdi
	rorq	$8, %rdx
	xorq	%rsi, %rdx
	movq	-104(%rsp), %rsi
	xorq	%rdi, %rdx
	movq	-88(%rsp), %rdi
	addq	%r15, %rdx
	addq	%rdi, %rdx
	movq	%rsi, %rdi
	rolq	$3, %rsi
	rorq	$19, %rdi
	xorq	%rdi, %rsi
	movq	-104(%rsp), %rdi
	addq	168(%r10), %r8
	shrq	$6, %rdi
	xorq	%rdi, %rsi
	addq	%rsi, %rdx
	movq	%rax, %rsi
	movq	%rdx, %rdi
	movq	%rax, %rdx
	rorq	$18, %rsi
	rorq	$14, %rdx
	addq	%rdi, %r8
	movq	%rdi, -88(%rsp)
	xorq	%rdx, %rsi
	movq	%rax, %rdx
	rolq	$23, %rdx
	xorq	%rsi, %rdx
	addq	%r8, %rdx
	movq	%rax, %r8
	notq	%r8
	movq	%r8, %rsi
	movq	%r11, %r8
	andq	%rax, %r8
	andq	%r9, %rsi
	xorq	%r8, %rsi
	movq	%rcx, %r8
	rorq	$28, %r8
	addq	%rsi, %rdx
	movq	%r8, %rsi
	movq	%rcx, %r8
	addq	%rdx, %r12
	rolq	$30, %r8
	movq	%r8, %rdi
	movq	%rcx, %r8
	xorq	%rsi, %rdi
	rolq	$25, %r8
	xorq	%r8, %rdi
	movq	%rbp, %r8
	xorq	%rbx, %r8
	movq	%r8, %rsi
	movq	%rbp, %r8
	andq	%rbx, %r8
	andq	%rcx, %rsi
	xorq	%r8, %rsi
	movq	-72(%rsp), %r8
	addq	%rdi, %rsi
	addq	%rsi, %rdx
	movq	%r8, %rdi
	movq	%r8, %rsi
	shrq	$7, %r8
	rorq	%rdi
	rorq	$8, %rsi
	xorq	%rdi, %rsi
	movq	-96(%rsp), %rdi
	xorq	%r8, %rsi
	movq	-80(%rsp), %r8
	addq	%r14, %rsi
	addq	%r8, %rsi
	movq	%rdi, %r8
	rolq	$3, %rdi
	rorq	$19, %r8
	xorq	%r8, %rdi
	movq	-96(%rsp), %r8
	shrq	$6, %r8
	xorq	%r8, %rdi
	leaq	(%rsi,%rdi), %r8
	movq	%r12, %rsi
	rorq	$14, %rsi
	movq	%r8, -80(%rsp)
	movq	%rsi, %rdi
	movq	%r12, %rsi
	rorq	$18, %rsi
	xorq	%rdi, %rsi
	movq	%r12, %rdi
	rolq	$23, %rdi
	xorq	%rsi, %rdi
	movq	176(%r10), %rsi
	addq	%r8, %rsi
	addq	%r9, %rsi
	movq	%r12, %r9
	notq	%r9
	addq	%rdi, %rsi
	movq	%r9, %rdi
	movq	%rax, %r9
	andq	%r12, %r9
	andq	%r11, %rdi
	xorq	%r9, %rdi
	movq	%rdx, %r9
	rorq	$28, %r9
	addq	%rdi, %rsi
	movq	%r9, %rdi
	movq	%rdx, %r9
	addq	%rsi, %rbp
	rolq	$30, %r9
	movq	%r9, %r8
	movq	%rdx, %r9
	xorq	%rdi, %r8
	rolq	$25, %r9
	xorq	%r9, %r8
	movq	%rbx, %r9
	xorq	%rcx, %r9
	movq	%r9, %rdi
	movq	%rbx, %r9
	andq	%rcx, %r9
	andq	%rdx, %rdi
	xorq	%r9, %rdi
	movq	-64(%rsp), %r9
	addq	%r8, %rdi
	addq	%rdi, %rsi
	movq	%r9, %rdi
	rorq	%rdi
	movq	%rdi, %r8
	movq	%r9, %rdi
	shrq	$7, %r9
	rorq	$8, %rdi
	xorq	%r8, %rdi
	movq	-88(%rsp), %r8
	xorq	%r9, %rdi
	movq	-40(%rsp), %r9
	addq	%r9, %rdi
	movq	-72(%rsp), %r9
	addq	%r9, %rdi
	movq	%r8, %r9
	rolq	$3, %r8
	rorq	$19, %r9
	xorq	%r9, %r8
	movq	-88(%rsp), %r9
	shrq	$6, %r9
	xorq	%r9, %r8
	addq	%r8, %rdi
	movq	%rdi, %r9
	movq	%rbp, %rdi
	rorq	$14, %rdi
	movq	%r9, -72(%rsp)
	movq	%rdi, %r8
	movq	%rbp, %rdi
	rorq	$18, %rdi
	xorq	%r8, %rdi
	movq	%rbp, %r8
	rolq	$23, %r8
	xorq	%rdi, %r8
	movq	184(%r10), %rdi
	addq	%r9, %rdi
	addq	%r11, %rdi
	movq	%r12, %r11
	addq	%r8, %rdi
	movq	%rbp, %r8
	andq	%rbp, %r11
	notq	%r8
	andq	%rax, %r8
	xorq	%r11, %r8
	movq	%rsi, %r11
	addq	%r8, %rdi
	rolq	$30, %r11
	movq	%rsi, %r8
	rorq	$28, %r8
	movq	%r11, %r9
	movq	%rcx, %r11
	xorq	%r8, %r9
	movq	%rsi, %r8
	rolq	$25, %r8
	xorq	%r8, %r9
	movq	%rcx, %r8
	xorq	%rdx, %r8
	andq	%rsi, %r8
	andq	%rdx, %r11
	addq	%rdi, %rbx
	xorq	%r11, %r8
	movq	-56(%rsp), %r11
	addq	%r9, %r8
	addq	%r8, %rdi
	movq	%r11, %r8
	rorq	%r8
	movq	%r8, %r9
	movq	%r11, %r8
	shrq	$7, %r11
	rorq	$8, %r8
	xorq	%r9, %r8
	movq	-80(%rsp), %r9
	xorq	%r11, %r8
	movq	-120(%rsp), %r11
	addq	%r11, %r8
	movq	-64(%rsp), %r11
	addq	%r11, %r8
	movq	%r9, %r11
	rolq	$3, %r9
	rorq	$19, %r11
	xorq	%r11, %r9
	movq	-80(%rsp), %r11
	shrq	$6, %r11
	xorq	%r11, %r9
	leaq	(%r8,%r9), %r11
	movq	%rbx, %r8
	rorq	$14, %r8
	movq	%r11, -64(%rsp)
	movq	%r8, %r9
	movq	%rbx, %r8
	rorq	$18, %r8
	xorq	%r9, %r8
	movq	%rbx, %r9
	rolq	$23, %r9
	xorq	%r8, %r9
	movq	192(%r10), %r8
	addq	%r11, %r8
	movq	%rdx, %r11
	addq	%r8, %rax
	movq	%rbx, %r8
	addq	%r9, %rax
	notq	%r8
	movq	%rbp, %r9
	andq	%rbx, %r9
	andq	%r12, %r8
	xorq	%r9, %r8
	movq	%rdi, %r9
	addq	%r8, %rax
	movq	%rdi, %r8
	rolq	$30, %r9
	rorq	$28, %r8
	xorq	%r8, %r9
	movq	%rdi, %r8
	rolq	$25, %r8
	andq	%rsi, %r11
	xorq	%r8, %r9
	movq	%rdx, %r8
	xorq	%rsi, %r8
	andq	%rdi, %r8
	xorq	%r11, %r8
	movq	-48(%rsp), %r11
	addq	%r8, %r9
	leaq	(%rcx,%rax), %r8
	addq	%r9, %rax
	movq	%r11, %rcx
	movq	%r11, %r9
	rorq	%r9
	rorq	$8, %rcx
	xorq	%r9, %rcx
	movq	%r11, %r9
	movq	-112(%rsp), %r11
	shrq	$7, %r9
	xorq	%r9, %rcx
	movq	-72(%rsp), %r9
	addq	%r11, %rcx
	movq	-56(%rsp), %r11
	addq	%r11, %rcx
	movq	%r9, %r11
	rolq	$3, %r9
	rorq	$19, %r11
	xorq	%r11, %r9
	movq	-72(%rsp), %r11
	shrq	$6, %r11
	xorq	%r11, %r9
	addq	%r9, %rcx
	movq	%rcx, %r11
	movq	%r8, %rcx
	rorq	$14, %rcx
	movq	%r11, -56(%rsp)
	movq	%rcx, %r9
	movq	%r8, %rcx
	rorq	$18, %rcx
	xorq	%r9, %rcx
	movq	%r8, %r9
	rolq	$23, %r9
	xorq	%rcx, %r9
	movq	200(%r10), %rcx
	addq	%r11, %rcx
	addq	%r12, %rcx
	movq	%r8, %r12
	notq	%r12
	addq	%r9, %rcx
	movq	%r12, %r9
	movq	%rbx, %r12
	andq	%r8, %r12
	andq	%rbp, %r9
	xorq	%r12, %r9
	movq	%rax, %r12
	addq	%r9, %rcx
	rorq	$28, %r12
	movq	%r12, %r9
	movq	%rax, %r12
	rolq	$30, %r12
	movq	%r12, %r11
	movq	%rax, %r12
	xorq	%r9, %r11
	rolq	$25, %r12
	xorq	%r12, %r11
	movq	%rsi, %r12
	xorq	%rdi, %r12
	movq	%r12, %r9
	movq	%rsi, %r12
	andq	%rdi, %r12
	andq	%rax, %r9
	xorq	%r12, %r9
	addq	%r9, %r11
	leaq	(%rdx,%rcx), %r9
	movq	-32(%rsp), %rdx
	addq	%r11, %rcx
	movq	%rdx, %r12
	rorq	%r12
	movq	%r12, %r11
	movq	%rdx, %r12
	rorq	$8, %rdx
	xorq	%r11, %rdx
	shrq	$7, %r12
	movq	-64(%rsp), %r11
	xorq	%r12, %rdx
	movq	-104(%rsp), %r12
	addq	%r12, %rdx
	movq	-48(%rsp), %r12
	addq	%r12, %rdx
	movq	%r11, %r12
	rolq	$3, %r11
	rorq	$19, %r12
	xorq	%r12, %r11
	movq	-64(%rsp), %r12
	shrq	$6, %r12
	xorq	%r12, %r11
	addq	%r11, %rdx
	movq	%rdx, %r12
	movq	%r9, %rdx
	rorq	$14, %rdx
	movq	%r12, -48(%rsp)
	movq	%rdx, %r11
	movq	%r9, %rdx
	rorq	$18, %rdx
	xorq	%r11, %rdx
	movq	%r9, %r11
	rolq	$23, %r11
	xorq	%rdx, %r11
	movq	208(%r10), %rdx
	addq	%r12, %rdx
	movq	%rdi, %r12
	addq	%rbp, %rdx
	movq	%r9, %rbp
	notq	%rbp
	addq	%r11, %rdx
	andq	%rax, %r12
	movq	%rbp, %r11
	movq	%r8, %rbp
	andq	%r9, %rbp
	andq	%rbx, %r11
	xorq	%rbp, %r11
	movq	%rcx, %rbp
	rorq	$28, %rbp
	addq	%r11, %rdx
	movq	%rbp, %r11
	movq	%rcx, %rbp
	rolq	$30, %rbp
	xorq	%r11, %rbp
	movq	%rcx, %r11
	rolq	$25, %r11
	xorq	%r11, %rbp
	movq	%rdi, %r11
	xorq	%rax, %r11
	andq	%rcx, %r11
	xorq	%r12, %r11
	movq	-24(%rsp), %r12
	addq	%r11, %rbp
	leaq	(%rsi,%rdx), %r11
	addq	%rbp, %rdx
	movq	%r12, %rsi
	movq	%r12, %rbp
	rorq	%rbp
	rorq	$8, %rsi
	xorq	%rbp, %rsi
	movq	%r12, %rbp
	shrq	$7, %rbp
	xorq	%rbp, %rsi
	movq	-96(%rsp), %rbp
	addq	%rbp, %rsi
	movq	-32(%rsp), %rbp
	addq	%rbp, %rsi
	movq	-56(%rsp), %rbp
	movq	%rbp, %r12
	rolq	$3, %rbp
	rorq	$19, %r12
	xorq	%r12, %rbp
	movq	-56(%rsp), %r12
	shrq	$6, %r12
	xorq	%r12, %rbp
	addq	%rbp, %rsi
	movq	%rsi, %r12
	movq	%r11, %rsi
	rorq	$14, %rsi
	movq	%r12, -32(%rsp)
	movq	%rsi, %rbp
	movq	%r11, %rsi
	rorq	$18, %rsi
	xorq	%rbp, %rsi
	movq	%r11, %rbp
	rolq	$23, %rbp
	xorq	%rsi, %rbp
	movq	216(%r10), %rsi
	addq	%r12, %rsi
	movq	%rax, %r12
	addq	%rbx, %rsi
	movq	%r11, %rbx
	andq	%rcx, %r12
	addq	%rbp, %rsi
	notq	%rbx
	movq	%r9, %rbp
	andq	%r11, %rbp
	andq	%r8, %rbx
	xorq	%rbp, %rbx
	movq	%rdx, %rbp
	addq	%rbx, %rsi
	movq	%rdx, %rbx
	rolq	$30, %rbp
	rorq	$28, %rbx
	xorq	%rbx, %rbp
	movq	%rdx, %rbx
	rolq	$25, %rbx
	xorq	%rbx, %rbp
	movq	%rax, %rbx
	xorq	%rcx, %rbx
	andq	%rdx, %rbx
	xorq	%r12, %rbx
	addq	%rbx, %rbp
	leaq	(%rdi,%rsi), %rbx
	movq	%r13, %rdi
	rorq	%rdi
	addq	%rbp, %rsi
	movq	%rdi, %rbp
	movq	%r13, %rdi
	rorq	$8, %rdi
	xorq	%rbp, %rdi
	movq	%r13, %rbp
	shrq	$7, %rbp
	xorq	%rbp, %rdi
	movq	-88(%rsp), %rbp
	addq	%rbp, %rdi
	movq	-24(%rsp), %rbp
	addq	%rbp, %rdi
	movq	-48(%rsp), %rbp
	movq	%rbp, %r12
	rolq	$3, %rbp
	rorq	$19, %r12
	xorq	%r12, %rbp
	movq	-48(%rsp), %r12
	shrq	$6, %r12
	xorq	%r12, %rbp
	addq	%rbp, %rdi
	movq	%rbx, %rbp
	movq	%rdi, %r12
	movq	%rbx, %rdi
	rorq	$14, %rbp
	rorq	$18, %rdi
	movq	%r12, -24(%rsp)
	xorq	%rbp, %rdi
	movq	%rbx, %rbp
	rolq	$23, %rbp
	xorq	%rdi, %rbp
	movq	224(%r10), %rdi
	addq	%r12, %rdi
	movq	%rcx, %r12
	addq	%r8, %rdi
	movq	%rbx, %r8
	andq	%rdx, %r12
	addq	%rbp, %rdi
	notq	%r8
	movq	%r11, %rbp
	andq	%rbx, %rbp
	andq	%r9, %r8
	xorq	%rbp, %r8
	movq	%rsi, %rbp
	addq	%r8, %rdi
	movq	%rsi, %r8
	rolq	$30, %rbp
	rorq	$28, %r8
	addq	%rdi, %rax
	xorq	%r8, %rbp
	movq	%rsi, %r8
	rolq	$25, %r8
	xorq	%r8, %rbp
	movq	%rcx, %r8
	xorq	%rdx, %r8
	andq	%rsi, %r8
	xorq	%r12, %r8
	addq	%rbp, %r8
	movq	%r15, %rbp
	addq	%r8, %rdi
	movq	%r15, %r8
	rorq	%rbp
	rorq	$8, %r8
	xorq	%rbp, %r8
	movq	%r15, %rbp
	shrq	$7, %rbp
	xorq	%rbp, %r8
	movq	-80(%rsp), %rbp
	addq	%rbp, %r8
	addq	%r13, %r8
	movq	-32(%rsp), %r13
	movq	%r13, %rbp
	rorq	$19, %rbp
	movq	%rbp, %r12
	movq	%r13, %rbp
	shrq	$6, %r13
	rolq	$3, %rbp
	xorq	%r12, %rbp
	movq	%rdx, %r12
	xorq	%r13, %rbp
	andq	%rsi, %r12
	leaq	(%r8,%rbp), %r13
	movq	%rax, %rbp
	movq	%rax, %r8
	rorq	$14, %rbp
	rorq	$18, %r8
	xorq	%rbp, %r8
	movq	%rax, %rbp
	rolq	$23, %rbp
	xorq	%r8, %rbp
	movq	232(%r10), %r8
	addq	%r13, %r8
	addq	%r9, %r8
	addq	%rbp, %r8
	movq	%rax, %rbp
	notq	%rbp
	movq	%rbp, %r9
	movq	%rbx, %rbp
	andq	%r11, %r9
	andq	%rax, %rbp
	xorq	%rbp, %r9
	movq	%rdi, %rbp
	rorq	$28, %rbp
	addq	%r9, %r8
	movq	%rbp, %r9
	movq	%rdi, %rbp
	addq	%r8, %rcx
	rolq	$30, %rbp
	xorq	%r9, %rbp
	movq	%rdi, %r9
	rolq	$25, %r9
	xorq	%r9, %rbp
	movq	%rdx, %r9
	xorq	%rsi, %r9
	andq	%rdi, %r9
	xorq	%r12, %r9
	addq	%rbp, %r9
	movq	%r14, %rbp
	addq	%r9, %r8
	movq	%r14, %r9
	rorq	%rbp
	rorq	$8, %r9
	xorq	%rbp, %r9
	movq	%r14, %rbp
	shrq	$7, %rbp
	xorq	%rbp, %r9
	movq	-72(%rsp), %rbp
	addq	%rbp, %r9
	addq	%r15, %r9
	movq	-24(%rsp), %r15
	movq	%r15, %rbp
	rorq	$19, %rbp
	movq	%rbp, %r12
	movq	%r15, %rbp
	shrq	$6, %r15
	rolq	$3, %rbp
	xorq	%r12, %rbp
	movq	%rsi, %r12
	xorq	%r15, %rbp
	andq	%rdi, %r12
	leaq	(%r9,%rbp), %r15
	movq	%rcx, %rbp
	movq	%rcx, %r9
	rorq	$14, %rbp
	rorq	$18, %r9
	xorq	%rbp, %r9
	movq	%rcx, %rbp
	rolq	$23, %rbp
	xorq	%r9, %rbp
	movq	240(%r10), %r9
	addq	%r15, %r9
	addq	%r11, %r9
	addq	%rbp, %r9
	movq	%rcx, %rbp
	notq	%rbp
	movq	%rbp, %r11
	movq	%rax, %rbp
	andq	%rbx, %r11
	andq	%rcx, %rbp
	xorq	%rbp, %r11
	movq	%r8, %rbp
	rorq	$28, %rbp
	addq	%r11, %r9
	movq	%rbp, %r11
	movq	%r8, %rbp
	addq	%r9, %rdx
	rolq	$30, %rbp
	xorq	%r11, %rbp
	movq	%r8, %r11
	rolq	$25, %r11
	xorq	%r11, %rbp
	movq	%rsi, %r11
	xorq	%rdi, %r11
	andq	%r8, %r11
	xorq	%r12, %r11
	movq	-40(%rsp), %r12
	addq	%rbp, %r11
	addq	%r11, %r9
	movq	%r12, %rbp
	movq	%r12, %r11
	rorq	%rbp
	rorq	$8, %r11
	xorq	%rbp, %r11
	movq	%r12, %rbp
	movq	-64(%rsp), %r12
	shrq	$7, %rbp
	xorq	%rbp, %r11
	movq	%r13, %rbp
	addq	%r12, %r11
	movq	%r13, %r12
	rolq	$3, %rbp
	rorq	$19, %r12
	addq	%r14, %r11
	xorq	%r12, %rbp
	movq	%r13, %r12
	shrq	$6, %r12
	xorq	%r12, %rbp
	movq	%rdi, %r12
	leaq	(%r11,%rbp), %r14
	movq	%rdx, %rbp
	movq	%rdx, %r11
	rorq	$14, %rbp
	rorq	$18, %r11
	xorq	%rbp, %r11
	movq	%rdx, %rbp
	rolq	$23, %rbp
	xorq	%r11, %rbp
	movq	248(%r10), %r11
	addq	%r14, %r11
	addq	%rbx, %r11
	movq	%rdx, %rbx
	addq	%rbp, %r11
	notq	%rbx
	movq	%rcx, %rbp
	andq	%rdx, %rbp
	andq	%rax, %rbx
	xorq	%rbp, %rbx
	movq	%r9, %rbp
	addq	%rbx, %r11
	movq	%r9, %rbx
	rolq	$30, %rbp
	rorq	$28, %rbx
	xorq	%rbx, %rbp
	movq	%r9, %rbx
	rolq	$25, %rbx
	xorq	%rbx, %rbp
	movq	%rdi, %rbx
	xorq	%r8, %rbx
	andq	%r9, %rbx
	andq	%r8, %r12
	addq	%r11, %rsi
	subq	$-128, %r10
	xorq	%r12, %rbx
	addq	%rbp, %rbx
	addq	%rbx, %r11
	movl	$K512+512, %ebx
	cmpq	%r10, %rbx
	jne	.L7
	movq	64(%rsp), %rbx
	addq	%r9, -16(%rsp)
	movq	-16(%rsp), %r15
	movq	48(%rsp), %r13
	addq	%rdi, (%rsp)
	movq	%rbx, %rdi
	movq	40(%rsp), %r12
	movq	%r15, 8(%rbx)
	movq	(%rsp), %r15
	addq	%r11, %r13
	addq	%r8, -8(%rsp)
	movq	-8(%rsp), %r14
	subq	$-128, %r12
	movq	%r13, (%rbx)
	movq	%r14, 16(%rbx)
	movq	%r15, 24(%rbx)
	addq	%rsi, 8(%rsp)
	movq	8(%rsp), %rbx
	movq	%rdi, %rsi
	addq	%rdx, 16(%rsp)
	movq	%rbx, 32(%rdi)
	movq	16(%rsp), %rdi
	addq	%rcx, 24(%rsp)
	movq	24(%rsp), %rcx
	addq	%rax, 32(%rsp)
	movq	32(%rsp), %rax
	movq	%rdi, 40(%rsi)
	movq	%rcx, 48(%rsi)
	movq	%rax, 56(%rsi)
	movq	56(%rsp), %rax
	cmpq	%rax, %r12
	jne	.L8
	addq	$72, %rsp
	.cfi_def_cfa_offset 56
	popq	%rbx
	.cfi_def_cfa_offset 48
	popq	%rbp
	.cfi_def_cfa_offset 40
	popq	%r12
	.cfi_def_cfa_offset 32
	popq	%r13
	.cfi_def_cfa_offset 24
	popq	%r14
	.cfi_def_cfa_offset 16
	popq	%r15
	.cfi_def_cfa_offset 8
	ret
	.cfi_endproc
.LFE47:
	.size	sha512_block_data_order, .-sha512_block_data_order
	.p2align 4
	.type	sha512_final_impl, @function
sha512_final_impl:
.LFB49:
	.cfi_startproc
	pushq	%r13
	.cfi_def_cfa_offset 16
	.cfi_offset 13, -16
	leaq	80(%rdx), %r13
	pushq	%r12
	.cfi_def_cfa_offset 24
	.cfi_offset 12, -24
	movq	%rdi, %r12
	pushq	%rbp
	.cfi_def_cfa_offset 32
	.cfi_offset 6, -32
	movq	%rsi, %rbp
	pushq	%rbx
	.cfi_def_cfa_offset 40
	.cfi_offset 3, -40
	movq	%rdx, %rbx
	subq	$8, %rsp
	.cfi_def_cfa_offset 48
	movl	208(%rdx), %eax
	movb	$-128, 80(%rdx,%rax)
	addq	$1, %rax
	leaq	0(%r13,%rax), %rsi
	cmpq	$112, %rax
	jbe	.L13
	movl	$128, %edx
	subq	%rax, %rdx
	jne	.L73
.L14:
	movl	$1, %edx
	movq	%r13, %rsi
	movq	%rbx, %rdi
	call	sha512_block_data_order
	movq	%r13, %rsi
	movl	$112, %edx
.L21:
	movl	%edx, %ecx
	cmpl	$8, %edx
	jb	.L74
	leaq	8(%rsi), %rdi
	movl	%edx, %eax
	movq	$0, (%rsi)
	movq	$0, -8(%rsi,%rax)
	andq	$-8, %rdi
	xorl	%eax, %eax
	subq	%rdi, %rsi
	leal	(%rdx,%rsi), %ecx
	shrl	$3, %ecx
	rep stosq
.L22:
	movq	72(%rbx), %rax
	movq	64(%rbx), %rdx
	movq	%r13, %rsi
	movq	%rbx, %rdi
	bswap	%rdx
	bswap	%rax
	movq	%rdx, %xmm1
	movq	%rax, %xmm0
	punpcklqdq	%xmm1, %xmm0
	movl	$1, %edx
	movups	%xmm0, 192(%rbx)
	call	sha512_block_data_order
	testq	%r12, %r12
	je	.L31
	shrq	$3, %rbp
	je	.L30
	movq	(%rbx), %rax
	bswap	%rax
	movq	%rax, (%r12)
	cmpq	$1, %rbp
	je	.L30
	movq	8(%rbx), %rax
	bswap	%rax
	movq	%rax, 8(%r12)
	cmpq	$2, %rbp
	je	.L30
	movq	16(%rbx), %rax
	bswap	%rax
	movq	%rax, 16(%r12)
	cmpq	$3, %rbp
	je	.L30
	movq	24(%rbx), %rax
	bswap	%rax
	movq	%rax, 24(%r12)
	cmpq	$4, %rbp
	je	.L30
	movq	32(%rbx), %rax
	bswap	%rax
	movq	%rax, 32(%r12)
	cmpq	$5, %rbp
	je	.L30
	movq	40(%rbx), %rax
	bswap	%rax
	movq	%rax, 40(%r12)
	cmpq	$6, %rbp
	je	.L30
	movq	48(%rbx), %rax
	bswap	%rax
	movq	%rax, 48(%r12)
	cmpq	$7, %rbp
	je	.L30
	movq	56(%rbx), %rax
	bswap	%rax
	movq	%rax, 56(%r12)
.L30:
	addq	$8, %rsp
	.cfi_remember_state
	.cfi_def_cfa_offset 40
	movl	$1, %eax
	popq	%rbx
	.cfi_def_cfa_offset 32
	popq	%rbp
	.cfi_def_cfa_offset 24
	popq	%r12
	.cfi_def_cfa_offset 16
	popq	%r13
	.cfi_def_cfa_offset 8
	ret
	.p2align 4,,10
	.p2align 3
.L74:
	.cfi_restore_state
	andl	$4, %edx
	jne	.L75
	testl	%ecx, %ecx
	je	.L22
	movb	$0, (%rsi)
	testb	$2, %cl
	je	.L22
	xorl	%eax, %eax
	movw	%ax, -2(%rsi,%rcx)
	jmp	.L22
	.p2align 4,,10
	.p2align 3
.L73:
	xorl	%edi, %edi
	cmpq	$8, %rdx
	jb	.L76
	leaq	8(%rsi), %rcx
	movq	$0, (%rsi)
	movq	$0, -8(%rsi,%rdx)
	andq	$-8, %rcx
	subq	%rcx, %rsi
	addq	%rsi, %rdx
	andq	$-8, %rdx
	cmpq	$8, %rdx
	jb	.L14
	andq	$-8, %rdx
	xorl	%eax, %eax
.L19:
	movq	%rdi, (%rcx,%rax)
	addq	$8, %rax
	cmpq	%rdx, %rax
	jb	.L19
	jmp	.L14
	.p2align 4,,10
	.p2align 3
.L13:
	movl	$112, %edx
	subq	%rax, %rdx
	je	.L22
	jmp	.L21
	.p2align 4,,10
	.p2align 3
.L76:
	testb	$4, %dl
	jne	.L77
	testq	%rdx, %rdx
	je	.L14
	movb	$0, (%rsi)
	testb	$2, %dl
	je	.L14
	xorl	%ecx, %ecx
	movw	%cx, -2(%rsi,%rdx)
	jmp	.L14
	.p2align 4,,10
	.p2align 3
.L31:
	addq	$8, %rsp
	.cfi_remember_state
	.cfi_def_cfa_offset 40
	xorl	%eax, %eax
	popq	%rbx
	.cfi_def_cfa_offset 32
	popq	%rbp
	.cfi_def_cfa_offset 24
	popq	%r12
	.cfi_def_cfa_offset 16
	popq	%r13
	.cfi_def_cfa_offset 8
	ret
.L75:
	.cfi_restore_state
	movl	$0, (%rsi)
	movl	$0, -4(%rsi,%rcx)
	jmp	.L22
.L77:
	movl	$0, (%rsi)
	movl	$0, -4(%rsi,%rdx)
	jmp	.L14
	.cfi_endproc
.LFE49:
	.size	sha512_final_impl, .-sha512_final_impl
	.p2align 4
	.type	table_select, @function
table_select:
.LFB82:
	.cfi_startproc
	pushq	%r15
	.cfi_def_cfa_offset 16
	.cfi_offset 15, -16
	movl	%edx, %r9d
	movsbq	%dl, %rdx
	xorl	%eax, %eax
	pushq	%r14
	.cfi_def_cfa_offset 24
	.cfi_offset 14, -24
	movq	%rdi, %r8
	movl	$11, %ecx
	movslq	%esi, %rsi
	pushq	%r13
	.cfi_def_cfa_offset 32
	.cfi_offset 13, -32
	leaq	(%rsi,%rsi,2), %rsi
	pushq	%r12
	.cfi_def_cfa_offset 40
	.cfi_offset 12, -40
	salq	$8, %rsi
	pushq	%rbp
	.cfi_def_cfa_offset 48
	.cfi_offset 6, -48
	addq	$k25519Precomp, %rsi
	pushq	%rbx
	.cfi_def_cfa_offset 56
	.cfi_offset 3, -56
	movq	%rdx, %rbx
	sarq	$63, %rbx
	subq	$144, %rsp
	.cfi_def_cfa_offset 200
	leaq	-80(%rsp), %rdi
	movq	%rbx, -96(%rsp)
	movq	$0, -87(%rsp)
	movq	$0, (%rsp)
	rep stosq
	movq	%rdx, %rax
	subq	$1, %rdx
	movl	$1, %edi
	notq	%rax
	andq	%rdx, %rax
	sarq	$63, %rax
	andl	$1, %eax
	movb	%al, -88(%rsp)
	movb	%al, -56(%rsp)
	movl	%ebx, %eax
	andl	%r9d, %eax
	addl	%eax, %eax
	subl	%eax, %r9d
	movzbl	%r9b, %r9d
	.p2align 4,,10
	.p2align 3
.L80:
	movq	%r9, %rax
	xorq	%rdi, %rax
	movq	%rax, %rdx
	subq	$1, %rax
	notq	%rdx
	andq	%rax, %rdx
	xorl	%eax, %eax
	sarq	$63, %rdx
	.p2align 4,,10
	.p2align 3
.L79:
	movzbl	(%rsi,%rax), %ecx
	andl	%edx, %ecx
	xorb	%cl, -88(%rsp,%rax)
	addq	$1, %rax
	cmpq	$96, %rax
	jne	.L79
	addq	$1, %rdi
	movzbl	-88(%rsp), %eax
	addq	$96, %rsi
	cmpq	$9, %rdi
	jne	.L80
	movzbl	-82(%rsp), %ecx
	movzbl	-83(%rsp), %edx
	movzbl	-77(%rsp), %esi
	salq	$40, %rdx
	salq	$48, %rcx
	addq	%rdx, %rcx
	movzbl	-76(%rsp), %edx
	salq	$37, %rsi
	addq	%rax, %rcx
	movzbl	-84(%rsp), %eax
	salq	$45, %rdx
	addq	%rsi, %rdx
	movzbl	-78(%rsp), %esi
	salq	$32, %rax
	addq	%rax, %rcx
	movzbl	-85(%rsp), %eax
	salq	$29, %rsi
	addq	%rsi, %rdx
	movzbl	-79(%rsp), %esi
	salq	$24, %rax
	addq	%rax, %rcx
	movzbl	-86(%rsp), %eax
	salq	$21, %rsi
	addq	%rsi, %rdx
	movzbl	-80(%rsp), %esi
	salq	$16, %rax
	addq	%rax, %rcx
	movzbl	-87(%rsp), %eax
	salq	$13, %rsi
	addq	%rsi, %rdx
	movzbl	-81(%rsp), %esi
	salq	$8, %rax
	addq	%rax, %rcx
	movabsq	$2251799813685247, %rax
	salq	$5, %rsi
	movq	%rcx, %r11
	shrq	$51, %rcx
	addq	%rsi, %rdx
	movzbl	-70(%rsp), %esi
	andq	%rax, %r11
	addq	%rcx, %rdx
	movzbl	-69(%rsp), %ecx
	salq	$42, %rsi
	movq	%rdx, %r10
	salq	$50, %rcx
	andq	%rax, %r10
	addq	%rsi, %rcx
	movzbl	-71(%rsp), %esi
	salq	$34, %rsi
	addq	%rsi, %rcx
	movzbl	-72(%rsp), %esi
	salq	$26, %rsi
	shrq	$51, %rdx
	addq	%rsi, %rcx
	movzbl	-73(%rsp), %esi
	salq	$18, %rsi
	addq	%rsi, %rcx
	movzbl	-74(%rsp), %esi
	salq	$10, %rsi
	addq	%rsi, %rcx
	movzbl	-75(%rsp), %esi
	leaq	(%rcx,%rsi,4), %rcx
	movzbl	-64(%rsp), %esi
	addq	%rdx, %rcx
	movzbl	-63(%rsp), %edx
	salq	$39, %rsi
	movq	%rcx, %r9
	shrq	$51, %rcx
	salq	$47, %rdx
	andq	%rax, %r9
	addq	%rsi, %rdx
	movzbl	-65(%rsp), %esi
	salq	$31, %rsi
	addq	%rsi, %rdx
	movzbl	-66(%rsp), %esi
	salq	$23, %rsi
	addq	%rsi, %rdx
	movzbl	-67(%rsp), %esi
	salq	$15, %rsi
	addq	%rsi, %rdx
	movzbl	-68(%rsp), %esi
	salq	$7, %rsi
	addq	%rsi, %rdx
	movzbl	-58(%rsp), %esi
	addq	%rcx, %rdx
	movzbl	-57(%rsp), %ecx
	salq	$36, %rsi
	movq	%rdx, %rdi
	salq	$44, %rcx
	andq	%rax, %rdi
	addq	%rsi, %rcx
	movzbl	-59(%rsp), %esi
	salq	$28, %rsi
	addq	%rsi, %rcx
	movzbl	-60(%rsp), %esi
	salq	$20, %rsi
	addq	%rsi, %rcx
	movzbl	-61(%rsp), %esi
	salq	$12, %rsi
	addq	%rsi, %rcx
	movzbl	-62(%rsp), %esi
	salq	$4, %rsi
	shrq	$51, %rdx
	addq	%rsi, %rcx
	leaq	(%rcx,%rdx), %rbx
	movq	%rbx, -104(%rsp)
	movzbl	-50(%rsp), %ecx
	movzbl	-51(%rsp), %edx
	movzbl	-45(%rsp), %esi
	salq	$48, %rcx
	salq	$40, %rdx
	salq	$37, %rsi
	addq	%rdx, %rcx
	movzbl	-56(%rsp), %edx
	addq	%rdx, %rcx
	movzbl	-52(%rsp), %edx
	salq	$32, %rdx
	addq	%rdx, %rcx
	movzbl	-53(%rsp), %edx
	salq	$24, %rdx
	addq	%rdx, %rcx
	movzbl	-54(%rsp), %edx
	salq	$16, %rdx
	addq	%rdx, %rcx
	movzbl	-55(%rsp), %edx
	salq	$8, %rdx
	addq	%rdx, %rcx
	movzbl	-44(%rsp), %edx
	movq	%rcx, %r13
	shrq	$51, %rcx
	salq	$45, %rdx
	andq	%rax, %r13
	addq	%rsi, %rdx
	movzbl	-46(%rsp), %esi
	salq	$29, %rsi
	addq	%rsi, %rdx
	movzbl	-47(%rsp), %esi
	salq	$21, %rsi
	addq	%rsi, %rdx
	movzbl	-48(%rsp), %esi
	salq	$13, %rsi
	addq	%rsi, %rdx
	movzbl	-49(%rsp), %esi
	salq	$5, %rsi
	addq	%rsi, %rdx
	movzbl	-38(%rsp), %esi
	addq	%rcx, %rdx
	movzbl	-37(%rsp), %ecx
	movq	%rdx, %r12
	salq	$42, %rsi
	salq	$50, %rcx
	andq	%rax, %r12
	addq	%rsi, %rcx
	movzbl	-39(%rsp), %esi
	shrq	$51, %rdx
	salq	$34, %rsi
	addq	%rsi, %rcx
	movzbl	-40(%rsp), %esi
	salq	$26, %rsi
	addq	%rsi, %rcx
	movzbl	-41(%rsp), %esi
	salq	$18, %rsi
	addq	%rsi, %rcx
	movzbl	-42(%rsp), %esi
	salq	$10, %rsi
	addq	%rsi, %rcx
	movzbl	-43(%rsp), %esi
	leaq	(%rcx,%rsi,4), %rcx
	movzbl	-32(%rsp), %esi
	addq	%rdx, %rcx
	movzbl	-31(%rsp), %edx
	salq	$39, %rsi
	movq	%rcx, %rbp
	shrq	$51, %rcx
	salq	$47, %rdx
	andq	%rax, %rbp
	addq	%rsi, %rdx
	movzbl	-33(%rsp), %esi
	salq	$31, %rsi
	addq	%rsi, %rdx
	movzbl	-34(%rsp), %esi
	salq	$23, %rsi
	addq	%rsi, %rdx
	movzbl	-35(%rsp), %esi
	salq	$15, %rsi
	addq	%rsi, %rdx
	movzbl	-36(%rsp), %esi
	salq	$7, %rsi
	addq	%rsi, %rdx
	addq	%rcx, %rdx
	movzbl	-25(%rsp), %ecx
	movq	%rdx, %rsi
	andq	%rax, %rsi
	salq	$44, %rcx
	movq	%rsi, %rbx
	movzbl	-26(%rsp), %esi
	salq	$36, %rsi
	addq	%rsi, %rcx
	movzbl	-27(%rsp), %esi
	salq	$28, %rsi
	addq	%rsi, %rcx
	movzbl	-28(%rsp), %esi
	salq	$20, %rsi
	addq	%rsi, %rcx
	movzbl	-29(%rsp), %esi
	shrq	$51, %rdx
	salq	$12, %rsi
	addq	%rsi, %rcx
	movzbl	-30(%rsp), %esi
	salq	$4, %rsi
	addq	%rsi, %rcx
	leaq	(%rcx,%rdx), %rsi
	movq	%rsi, -112(%rsp)
	movzbl	-18(%rsp), %edx
	movzbl	-19(%rsp), %ecx
	movzbl	-12(%rsp), %esi
	salq	$48, %rdx
	salq	$40, %rcx
	salq	$45, %rsi
	addq	%rcx, %rdx
	movzbl	-24(%rsp), %ecx
	addq	%rcx, %rdx
	movzbl	-20(%rsp), %ecx
	salq	$32, %rcx
	addq	%rcx, %rdx
	movzbl	-21(%rsp), %ecx
	salq	$24, %rcx
	addq	%rcx, %rdx
	movzbl	-22(%rsp), %ecx
	salq	$16, %rcx
	addq	%rcx, %rdx
	movzbl	-23(%rsp), %ecx
	salq	$8, %rcx
	addq	%rcx, %rdx
	movzbl	-13(%rsp), %ecx
	movq	%rdx, %r14
	shrq	$51, %rdx
	salq	$37, %rcx
	andq	%rax, %r14
	addq	%rcx, %rsi
	movzbl	-14(%rsp), %ecx
	movq	%r14, -120(%rsp)
	movzbl	-6(%rsp), %r14d
	salq	$29, %rcx
	addq	%rcx, %rsi
	movzbl	-15(%rsp), %ecx
	salq	$21, %rcx
	addq	%rcx, %rsi
	movzbl	-16(%rsp), %ecx
	salq	$13, %rcx
	addq	%rcx, %rsi
	movzbl	-17(%rsp), %ecx
	salq	$5, %rcx
	addq	%rsi, %rcx
	addq	%rdx, %rcx
	movq	%rcx, %rdx
	andq	%rax, %rdx
	salq	$42, %r14
	movq	%rdx, %rsi
	movzbl	-5(%rsp), %edx
	shrq	$51, %rcx
	salq	$50, %rdx
	addq	%r14, %rdx
	movzbl	-7(%rsp), %r14d
	salq	$34, %r14
	addq	%r14, %rdx
	movzbl	-8(%rsp), %r14d
	salq	$26, %r14
	addq	%r14, %rdx
	movzbl	-9(%rsp), %r14d
	salq	$18, %r14
	addq	%r14, %rdx
	movzbl	-10(%rsp), %r14d
	salq	$10, %r14
	addq	%r14, %rdx
	movzbl	-11(%rsp), %r14d
	leaq	(%rdx,%r14,4), %r15
	movzbl	1(%rsp), %edx
	movzbl	(%rsp), %r14d
	addq	%rcx, %r15
	salq	$39, %r14
	salq	$47, %rdx
	movq	%r15, %rcx
	addq	%r14, %rdx
	movzbl	-1(%rsp), %r14d
	shrq	$51, %r15
	andq	%rax, %rcx
	salq	$31, %r14
	addq	%r14, %rdx
	movzbl	-2(%rsp), %r14d
	salq	$23, %r14
	addq	%r14, %rdx
	movzbl	-3(%rsp), %r14d
	salq	$15, %r14
	addq	%r14, %rdx
	movzbl	-4(%rsp), %r14d
	salq	$7, %r14
	addq	%rdx, %r14
	movzbl	7(%rsp), %edx
	addq	%r15, %r14
	movzbl	6(%rsp), %r15d
	salq	$44, %rdx
	andq	%r14, %rax
	salq	$36, %r15
	addq	%r15, %rdx
	movzbl	5(%rsp), %r15d
	salq	$28, %r15
	shrq	$51, %r14
	addq	%r15, %rdx
	movzbl	4(%rsp), %r15d
	salq	$20, %r15
	addq	%r15, %rdx
	movzbl	3(%rsp), %r15d
	salq	$12, %r15
	addq	%r15, %rdx
	movzbl	2(%rsp), %r15d
	movq	%rdi, 24(%r8)
	movq	%rdi, 72(%rsp)
	salq	$4, %r15
	movq	%rsi, 88(%r8)
	addq	%rdx, %r15
	movq	%rcx, 96(%r8)
	movabsq	$4503599627370458, %rdx
	addq	%r14, %r15
	movq	-120(%rsp), %r14
	movq	%rax, 104(%r8)
	movq	%r11, (%r8)
	subq	%r14, %rdx
	movq	%r10, 8(%r8)
	movdqu	(%r8), %xmm0
	movq	%rdx, 88(%rsp)
	movdqu	(%r8), %xmm2
	movabsq	$4503599627370494, %rdx
	movq	%rdx, %rdi
	movq	%r13, 8(%rsp)
	subq	%rsi, %rdi
	movq	%rdx, %rsi
	movq	%r12, 16(%rsp)
	pxor	8(%rsp), %xmm0
	subq	%rcx, %rsi
	movq	%rdx, %rcx
	movq	%rbp, 24(%rsp)
	subq	%r15, %rdx
	subq	%rax, %rcx
	movq	-96(%rsp), %rax
	movq	%r9, 16(%r8)
	xorq	%r15, %rdx
	movq	%rbx, 32(%rsp)
	movq	%rax, %xmm1
	movq	%rdi, 96(%rsp)
	punpcklqdq	%xmm1, %xmm1
	movq	%rcx, 112(%rsp)
	pand	%xmm1, %xmm0
	movq	%r13, 40(%r8)
	pxor	%xmm2, %xmm0
	movq	%r12, 48(%r8)
	movq	%rbp, 56(%r8)
	movq	%rbx, 64(%r8)
	movq	%r14, 80(%r8)
	movq	%r11, 48(%rsp)
	movq	%r10, 56(%rsp)
	movq	%r9, 64(%rsp)
	movq	%rsi, 104(%rsp)
	movups	%xmm0, (%r8)
	movdqu	16(%r8), %xmm0
	pxor	24(%rsp), %xmm0
	movdqu	16(%r8), %xmm3
	movdqu	40(%r8), %xmm4
	pand	%xmm1, %xmm0
	movdqu	56(%r8), %xmm6
	movdqu	80(%r8), %xmm2
	pxor	%xmm3, %xmm0
	movq	-104(%rsp), %rbx
	movq	-112(%rsp), %rdi
	movups	%xmm0, 16(%r8)
	movdqu	48(%rsp), %xmm0
	movdqu	96(%r8), %xmm3
	movq	%rbx, %rcx
	pxor	%xmm4, %xmm0
	xorq	%rdi, %rcx
	pand	%xmm1, %xmm0
	andq	%rax, %rcx
	andq	%rdx, %rax
	pxor	%xmm4, %xmm0
	xorq	%rcx, %rbx
	xorq	%r15, %rax
	xorq	%rdi, %rcx
	movups	%xmm0, 40(%r8)
	movdqu	64(%rsp), %xmm0
	movq	%rbx, 32(%r8)
	pxor	%xmm6, %xmm0
	movq	%rcx, 72(%r8)
	pand	%xmm1, %xmm0
	movq	%rax, 112(%r8)
	pxor	%xmm6, %xmm0
	movups	%xmm0, 56(%r8)
	movdqu	80(%r8), %xmm0
	pxor	88(%rsp), %xmm0
	pand	%xmm1, %xmm0
	pxor	%xmm2, %xmm0
	movups	%xmm0, 80(%r8)
	movdqu	96(%r8), %xmm0
	pxor	104(%rsp), %xmm0
	pand	%xmm1, %xmm0
	pxor	%xmm3, %xmm0
	movups	%xmm0, 96(%r8)
	addq	$144, %rsp
	.cfi_def_cfa_offset 56
	popq	%rbx
	.cfi_def_cfa_offset 48
	popq	%rbp
	.cfi_def_cfa_offset 40
	popq	%r12
	.cfi_def_cfa_offset 32
	popq	%r13
	.cfi_def_cfa_offset 24
	popq	%r14
	.cfi_def_cfa_offset 16
	popq	%r15
	.cfi_def_cfa_offset 8
	ret
	.cfi_endproc
.LFE82:
	.size	table_select, .-table_select
	.p2align 4
	.type	ge_madd, @function
ge_madd:
.LFB76:
	.cfi_startproc
	pushq	%r15
	.cfi_def_cfa_offset 16
	.cfi_offset 15, -16
	movq	%rsi, %rcx
	pushq	%r14
	.cfi_def_cfa_offset 24
	.cfi_offset 14, -24
	pushq	%r13
	.cfi_def_cfa_offset 32
	.cfi_offset 13, -32
	pushq	%r12
	.cfi_def_cfa_offset 40
	.cfi_offset 12, -40
	pushq	%rbp
	.cfi_def_cfa_offset 48
	.cfi_offset 6, -48
	pushq	%rbx
	.cfi_def_cfa_offset 56
	.cfi_offset 3, -56
	movq	%rdi, %rbx
	movq	%rdx, %rdi
	subq	$48, %rsp
	.cfi_def_cfa_offset 104
	movq	(%rsi), %rax
	addq	40(%rsi), %rax
	movq	%rax, %r14
	movq	24(%rsi), %rax
	addq	64(%rsi), %rax
	movq	8(%rsi), %r11
	movq	16(%rsi), %r9
	movq	%rax, %r15
	addq	48(%rsi), %r11
	addq	56(%rsi), %r9
	movq	32(%rsi), %rax
	addq	72(%rsi), %rax
	movq	%r14, (%rbx)
	movq	%r11, 8(%rbx)
	movq	%rax, %rbp
	movq	%r9, 16(%rbx)
	movq	%r15, 24(%rbx)
	movq	%rax, 32(%rbx)
	movabsq	$4503599627370458, %rax
	addq	40(%rsi), %rax
	subq	(%rsi), %rax
	movq	%rax, %rsi
	movabsq	$4503599627370494, %rax
	addq	48(%rcx), %rax
	subq	8(%rcx), %rax
	movq	%rax, %rdx
	movabsq	$4503599627370494, %rax
	addq	56(%rcx), %rax
	subq	16(%rcx), %rax
	movq	%rax, %r8
	movabsq	$4503599627370494, %rax
	addq	64(%rcx), %rax
	subq	24(%rcx), %rax
	movq	%rax, %r10
	movabsq	$4503599627370494, %rax
	addq	72(%rcx), %rax
	subq	32(%rcx), %rax
	movq	%rsi, -80(%rsp)
	movq	%rsi, 40(%rbx)
	movq	%rdx, 48(%rbx)
	movq	%r8, 56(%rbx)
	movq	%r10, 64(%rbx)
	movq	%rax, 72(%rbx)
	movq	%rbx, -120(%rsp)
	movq	32(%rdi), %rbx
	movq	%rax, -104(%rsp)
	leaq	(%rbx,%rbx,8), %rax
	movq	%r8, -112(%rsp)
	leaq	(%rbx,%rax,2), %rsi
	movq	24(%rdi), %rbx
	movq	%r10, -88(%rsp)
	movq	%rdx, -56(%rsp)
	leaq	(%rbx,%rbx,8), %rax
	leaq	(%rbx,%rax,2), %r13
	movq	16(%rdi), %rbx
	movq	%r13, %r10
	leaq	(%rbx,%rbx,8), %rax
	movq	%r10, -72(%rsp)
	leaq	(%rbx,%rax,2), %r8
	movq	8(%rdi), %rbx
	leaq	(%rbx,%rbx,8), %rax
	leaq	(%rbx,%rax,2), %r13
	movq	%r11, %rbx
	movq	%r13, %rax
	mulq	%rbp
	movq	%rax, %r12
	movq	%r8, %rax
	movq	%rdx, %r13
	mulq	%r15
	addq	%rax, %r12
	movq	%r10, %rax
	movq	%r9, %r10
	adcq	%rdx, %r13
	mulq	%r9
	movq	%r10, -24(%rsp)
	addq	%rax, %r12
	movq	%r11, %rax
	adcq	%rdx, %r13
	mulq	%rsi
	addq	%rax, %r12
	movq	%r14, %rax
	adcq	%rdx, %r13
	mulq	(%rdi)
	addq	%rax, %r12
	movq	%r8, %rax
	adcq	%rdx, %r13
	mulq	%rbp
	movq	%r12, -40(%rsp)
	movq	%r13, -32(%rsp)
	movq	%rax, %r8
	movq	-72(%rsp), %rax
	movq	%rdx, %r9
	mulq	%r15
	addq	%rax, %r8
	movq	%r10, %rax
	adcq	%rdx, %r9
	mulq	%rsi
	addq	%rax, %r8
	movq	%rbx, %rax
	adcq	%rdx, %r9
	mulq	(%rdi)
	movq	%r8, %r10
	movq	%r9, %r11
	addq	%rax, %r10
	movq	%r14, %rax
	adcq	%rdx, %r11
	mulq	8(%rdi)
	addq	%r10, %rax
	movq	%r12, %r10
	adcq	%r11, %rdx
	shrdq	$51, %r13, %r10
	xorl	%r9d, %r9d
	addq	%r10, %rax
	movq	%rax, %r12
	movq	-72(%rsp), %rax
	adcq	%r9, %rdx
	movq	%rdx, %r13
	movq	%r12, -72(%rsp)
	mulq	%rbp
	movq	%rax, %r8
	movq	%rsi, %rax
	movq	%rdx, %r9
	mulq	%r15
	addq	%rax, %r8
	movq	-24(%rsp), %rax
	adcq	%rdx, %r9
	mulq	(%rdi)
	addq	%rax, %r8
	movq	%rbx, %rax
	adcq	%rdx, %r9
	mulq	8(%rdi)
	movq	%r8, %r10
	movq	%r9, %r11
	movq	%r12, %r9
	addq	%rax, %r10
	movq	%r14, %rax
	adcq	%rdx, %r11
	mulq	16(%rdi)
	addq	%r10, %rax
	adcq	%r11, %rdx
	shrdq	$51, %r13, %r9
	xorl	%r13d, %r13d
	movq	%r9, %r12
	addq	%rax, %r12
	movq	%rsi, %rax
	movabsq	$2251799813685247, %rsi
	adcq	%rdx, %r13
	mulq	%rbp
	movq	%rax, %r8
	movq	%rdx, %r9
	movq	%r15, %rax
	mulq	(%rdi)
	addq	%rax, %r8
	movq	-24(%rsp), %rax
	adcq	%rdx, %r9
	mulq	8(%rdi)
	addq	%rax, %r8
	movq	%rbx, %rax
	adcq	%rdx, %r9
	mulq	16(%rdi)
	movq	%r8, %r10
	movq	%r9, %r11
	movq	%rax, %r8
	movq	%rdx, %r9
	movq	%r14, %rax
	addq	%r10, %r8
	adcq	%r11, %r9
	mulq	24(%rdi)
	addq	%rax, %r8
	movq	%r12, %rax
	adcq	%rdx, %r9
	shrdq	$51, %r13, %rax
	xorl	%edx, %edx
	movq	72(%rdi), %r13
	addq	%rax, %r8
	movq	%rbp, %rax
	adcq	%rdx, %r9
	mulq	(%rdi)
	movq	%r8, %r11
	andq	%rsi, %r11
	movq	%r11, 24(%rsp)
	movq	%rax, %r10
	movq	%rdx, %r11
	movq	%r15, %rax
	mulq	8(%rdi)
	addq	%rax, %r10
	movq	-24(%rsp), %rax
	adcq	%rdx, %r11
	mulq	16(%rdi)
	addq	%rax, %r10
	movq	%rbx, %rax
	movq	-40(%rsp), %rbx
	adcq	%rdx, %r11
	mulq	24(%rdi)
	addq	%rax, %r10
	movq	%r14, %rax
	adcq	%rdx, %r11
	mulq	32(%rdi)
	addq	%r10, %rax
	adcq	%r11, %rdx
	shrdq	$51, %r9, %r8
	xorl	%r11d, %r11d
	addq	%r8, %rax
	adcq	%r11, %rdx
	movq	%rax, %r15
	andq	%rsi, %rbx
	shrdq	$51, %rdx, %rax
	andq	%rsi, %r15
	leaq	(%rax,%rax,8), %rdx
	movq	%r15, 32(%rsp)
	movq	56(%rdi), %r15
	leaq	(%rax,%rdx,2), %rdx
	addq	%rbx, %rdx
	movq	-72(%rsp), %rbx
	movq	%rdx, %rbp
	shrq	$51, %rdx
	andq	%rsi, %rbx
	andq	%rsi, %rbp
	movq	%rbx, %rax
	movq	%r12, %rbx
	movq	%rbp, -40(%rsp)
	movq	48(%rdi), %rbp
	addq	%rdx, %rax
	andq	%rsi, %rbx
	movq	%rax, %r9
	shrq	$51, %rax
	leaq	(%rbx,%rax), %rbx
	leaq	0(%r13,%r13,8), %rax
	andq	%rsi, %r9
	leaq	0(%r13,%rax,2), %r14
	movq	64(%rdi), %r13
	movq	%r9, -16(%rsp)
	movq	%rbx, 8(%rsp)
	movq	-56(%rsp), %rbx
	leaq	0(%r13,%r13,8), %rax
	leaq	0(%r13,%rax,2), %r8
	leaq	(%r15,%r15,8), %rax
	leaq	(%r15,%rax,2), %r9
	leaq	0(%rbp,%rbp,8), %rax
	leaq	0(%rbp,%rax,2), %r13
	movq	%r13, %rax
	mulq	-104(%rsp)
	movq	%rax, %r12
	movq	-88(%rsp), %rax
	movq	%rdx, %r13
	mulq	%r9
	addq	%rax, %r12
	movq	-112(%rsp), %rax
	adcq	%rdx, %r13
	mulq	%r8
	addq	%rax, %r12
	movq	%rbx, %rax
	adcq	%rdx, %r13
	mulq	%r14
	addq	%rax, %r12
	movq	-80(%rsp), %rax
	adcq	%rdx, %r13
	mulq	40(%rdi)
	movq	%r12, %r10
	movq	%r13, %r11
	addq	%rax, %r10
	movq	%r9, %rax
	movq	-104(%rsp), %r9
	adcq	%rdx, %r11
	movq	%r10, -72(%rsp)
	mulq	%r9
	movq	%r11, -64(%rsp)
	movq	%rax, %r12
	movq	-88(%rsp), %rax
	movq	%rdx, %r13
	mulq	%r8
	addq	%rax, %r12
	movq	-112(%rsp), %rax
	adcq	%rdx, %r13
	mulq	%r14
	addq	%rax, %r12
	movq	%rbx, %rax
	adcq	%rdx, %r13
	mulq	40(%rdi)
	addq	%rax, %r12
	movq	-80(%rsp), %rax
	adcq	%rdx, %r13
	mulq	%rbp
	addq	%r12, %rax
	movq	%r10, %r12
	adcq	%r13, %rdx
	shrdq	$51, %r11, %r12
	xorl	%r11d, %r11d
	addq	%r12, %rax
	adcq	%r11, %rdx
	movq	%rax, %r12
	movq	%r8, %rax
	movq	%rdx, %r13
	mulq	%r9
	movq	%rax, %r8
	movq	-88(%rsp), %rax
	movq	%rdx, %r9
	mulq	%r14
	addq	%rax, %r8
	movq	-112(%rsp), %rax
	movq	%r12, -56(%rsp)
	adcq	%rdx, %r9
	mulq	40(%rdi)
	movq	%r13, -48(%rsp)
	addq	%rax, %r8
	movq	%rbx, %rax
	adcq	%rdx, %r9
	mulq	%rbp
	movq	%r8, %r10
	movq	%r9, %r11
	movq	%r12, %r9
	addq	%rax, %r10
	movq	-80(%rsp), %rax
	adcq	%rdx, %r11
	mulq	%r15
	addq	%r10, %rax
	adcq	%r11, %rdx
	shrdq	$51, %r13, %r9
	xorl	%r13d, %r13d
	movq	%r9, %r12
	addq	%rax, %r12
	movq	%r14, %rax
	movq	-80(%rsp), %r14
	adcq	%rdx, %r13
	mulq	-104(%rsp)
	movq	%rax, %r8
	movq	%rdx, %r9
	movq	-88(%rsp), %rax
	mulq	40(%rdi)
	addq	%rax, %r8
	movq	-112(%rsp), %rax
	adcq	%rdx, %r9
	movq	%r8, %r10
	movq	%r12, %r8
	mulq	%rbp
	movq	%r9, %r11
	addq	%rax, %r10
	movq	%rbx, %rax
	adcq	%rdx, %r11
	mulq	%r15
	addq	%rax, %r10
	movq	%r14, %rax
	adcq	%rdx, %r11
	mulq	64(%rdi)
	addq	%r10, %rax
	adcq	%r11, %rdx
	shrdq	$51, %r13, %r8
	xorl	%r9d, %r9d
	movq	152(%rcx), %r13
	addq	%rax, %r8
	movq	%r8, %rax
	adcq	%rdx, %r9
	andq	%rsi, %rax
	movq	%rax, -80(%rsp)
	movq	-104(%rsp), %rax
	mulq	40(%rdi)
	movq	%rax, %r10
	movq	-88(%rsp), %rax
	movq	%rdx, %r11
	mulq	%rbp
	movq	128(%rcx), %rbp
	addq	%rax, %r10
	movq	-112(%rsp), %rax
	adcq	%rdx, %r11
	mulq	%r15
	movq	96(%rdi), %r15
	addq	%rax, %r10
	movq	%rbx, %rax
	adcq	%rdx, %r11
	mulq	64(%rdi)
	addq	%rax, %r10
	movq	%r14, %rax
	movq	104(%rdi), %r14
	adcq	%rdx, %r11
	mulq	72(%rdi)
	addq	%rax, %r10
	adcq	%rdx, %r11
	shrdq	$51, %r9, %r8
	xorl	%edx, %edx
	addq	%r8, %r10
	adcq	%rdx, %r11
	movq	%r10, %rdx
	shrdq	$51, %r11, %r10
	andq	%rsi, %rdx
	movq	112(%rdi), %r11
	leaq	(%r10,%r10,8), %rax
	movq	%rdx, -24(%rsp)
	leaq	(%r10,%rax,2), %rdx
	movq	-72(%rsp), %rax
	andq	%rsi, %rax
	addq	%rax, %rdx
	movq	-56(%rsp), %rax
	movq	%rdx, %rbx
	shrq	$51, %rdx
	andq	%rsi, %rax
	andq	%rsi, %rbx
	addq	%rdx, %rax
	movq	%r12, %rdx
	andq	%rsi, %rdx
	movq	%rax, %r8
	shrq	$51, %rax
	andq	%rsi, %r8
	leaq	(%rdx,%rax), %r10
	leaq	0(%r13,%r13,8), %rax
	movq	%r8, -72(%rsp)
	leaq	0(%r13,%rax,2), %r8
	movq	144(%rcx), %r13
	movq	%r8, -104(%rsp)
	leaq	0(%r13,%r13,8), %rax
	movq	%r10, -56(%rsp)
	movq	88(%rdi), %r10
	leaq	0(%r13,%rax,2), %r8
	movq	136(%rcx), %r13
	movq	80(%rdi), %rdi
	movq	%r11, -112(%rsp)
	movq	%r10, -88(%rsp)
	leaq	0(%r13,%r13,8), %rax
	leaq	0(%r13,%rax,2), %r9
	leaq	0(%rbp,%rbp,8), %rax
	leaq	0(%rbp,%rax,2), %r13
	movq	%r13, %rax
	mulq	%r11
	movq	%rax, %r12
	movq	%r9, %rax
	movq	%rdx, %r13
	mulq	%r14
	addq	%rax, %r12
	movq	%rdi, %rax
	adcq	%rdx, %r13
	mulq	120(%rcx)
	addq	%rax, %r12
	movq	%r8, %rax
	adcq	%rdx, %r13
	mulq	%r15
	addq	%rax, %r12
	movq	-104(%rsp), %rax
	adcq	%rdx, %r13
	mulq	%r10
	addq	%rax, %r12
	movq	%r10, %rax
	adcq	%rdx, %r13
	mulq	120(%rcx)
	movq	%r12, -8(%rsp)
	movq	%r13, (%rsp)
	movq	%rax, %r10
	movq	%rbp, %rax
	movq	%rdx, %r11
	mulq	%rdi
	addq	%rax, %r10
	movq	%r9, %rax
	movq	-112(%rsp), %r9
	adcq	%rdx, %r11
	mulq	%r9
	addq	%rax, %r10
	movq	%r8, %rax
	adcq	%rdx, %r11
	mulq	%r14
	addq	%rax, %r10
	movq	-104(%rsp), %rax
	adcq	%rdx, %r11
	mulq	%r15
	addq	%r10, %rax
	adcq	%r11, %rdx
	shrdq	$51, %r13, %r12
	xorl	%r11d, %r11d
	addq	%r12, %rax
	adcq	%r11, %rdx
	movq	%rax, %r12
	movq	%r15, %rax
	movq	%rdx, %r13
	mulq	120(%rcx)
	movq	%r13, -96(%rsp)
	movq	%rax, %r10
	movq	-88(%rsp), %rax
	movq	%rdx, %r11
	mulq	%rbp
	addq	%rax, %r10
	movq	%rdi, %rax
	adcq	%rdx, %r11
	mulq	136(%rcx)
	addq	%rax, %r10
	movq	%r8, %rax
	movq	-104(%rsp), %r8
	movq	%r12, -104(%rsp)
	adcq	%rdx, %r11
	mulq	%r9
	addq	%rax, %r10
	movq	%r8, %rax
	adcq	%rdx, %r11
	mulq	%r14
	addq	%r10, %rax
	movq	%r12, %r10
	adcq	%r11, %rdx
	shrdq	$51, %r13, %r10
	xorl	%r13d, %r13d
	movq	%r10, %r12
	addq	%rax, %r12
	movq	%r14, %rax
	adcq	%rdx, %r13
	mulq	120(%rcx)
	movq	%rax, %r10
	movq	%r15, %rax
	movq	%rdx, %r11
	mulq	%rbp
	addq	%rax, %r10
	movq	-88(%rsp), %rax
	adcq	%rdx, %r11
	mulq	136(%rcx)
	addq	%rax, %r10
	movq	%rdi, %rax
	adcq	%rdx, %r11
	mulq	144(%rcx)
	addq	%rax, %r10
	movq	%r8, %rax
	adcq	%rdx, %r11
	mulq	%r9
	movq	%r12, %r9
	addq	%r10, %rax
	adcq	%r11, %rdx
	shrdq	$51, %r13, %r9
	movq	80(%rcx), %r13
	movq	%r9, %r8
	xorl	%r9d, %r9d
	addq	%rax, %r8
	movq	%r8, %rax
	adcq	%rdx, %r9
	andq	%rsi, %rax
	movq	%rax, 16(%rsp)
	movq	-112(%rsp), %rax
	mulq	120(%rcx)
	movq	%rax, %r10
	movq	%r14, %rax
	movq	%rdx, %r11
	mulq	%rbp
	movq	88(%rcx), %rbp
	addq	%rax, %r10
	movq	%r15, %rax
	movabsq	$4503599627370458, %r15
	adcq	%rdx, %r11
	mulq	136(%rcx)
	addq	%rax, %r10
	movq	-88(%rsp), %rax
	adcq	%rdx, %r11
	mulq	144(%rcx)
	addq	%rax, %r10
	movq	%rdi, %rax
	adcq	%rdx, %r11
	mulq	152(%rcx)
	addq	%r10, %rax
	adcq	%r11, %rdx
	shrdq	$51, %r9, %r8
	xorl	%r11d, %r11d
	movq	%r8, %r10
	addq	%rax, %r10
	adcq	%rdx, %r11
	movq	%r10, %rdi
	shrdq	$51, %r11, %r10
	andq	%rsi, %rdi
	movq	96(%rcx), %r11
	leaq	(%r10,%r10,8), %rax
	movq	%rdi, %rdx
	leaq	(%r10,%rax,2), %rdi
	movq	-8(%rsp), %rax
	andq	%rsi, %rax
	addq	%rax, %rdi
	movq	-104(%rsp), %rax
	movq	104(%rcx), %r10
	movq	%rbx, -112(%rsp)
	movq	%rdi, %r9
	shrq	$51, %rdi
	movq	-16(%rsp), %r14
	andq	%rsi, %rax
	andq	%rsi, %r9
	addq	%rdi, %rax
	movq	%rax, %rdi
	shrq	$51, %rax
	andq	%rsi, %rdi
	movq	%rdi, %r8
	movq	%r12, %rdi
	movq	-72(%rsp), %r12
	andq	%rsi, %rdi
	addq	%rax, %rdi
	leaq	(%r13,%r13), %rax
	movq	112(%rcx), %r13
	movq	-40(%rsp), %rcx
	addq	%r15, %rcx
	addq	$36, %r15
	subq	%rbx, %rcx
	movq	-120(%rsp), %rbx
	movq	%rcx, (%rbx)
	leaq	(%r14,%r15), %rcx
	movq	8(%rsp), %r14
	subq	%r12, %rcx
	movq	-56(%rsp), %r12
	movq	%rcx, 8(%rbx)
	leaq	(%r14,%r15), %rcx
	movq	24(%rsp), %r14
	subq	%r12, %rcx
	movq	-80(%rsp), %r12
	movq	%rcx, 16(%rbx)
	leaq	(%r14,%r15), %rcx
	subq	%r12, %rcx
	movq	32(%rsp), %r12
	movq	%rcx, 24(%rbx)
	movq	-24(%rsp), %rbx
	leaq	(%r12,%r15), %rcx
	subq	%rbx, %rcx
	movq	-120(%rsp), %rbx
	movq	%rcx, 32(%rbx)
	movq	-112(%rsp), %rbx
	movq	-40(%rsp), %rcx
	addq	%rbx, %rcx
	movq	-120(%rsp), %rbx
	movq	%rcx, 40(%rbx)
	movq	-72(%rsp), %rbx
	movq	-16(%rsp), %rcx
	addq	%rbx, %rcx
	movq	-120(%rsp), %rbx
	movq	%rcx, 48(%rbx)
	movq	8(%rsp), %rbx
	movq	-56(%rsp), %rcx
	addq	%rbx, %rcx
	movq	-120(%rsp), %rbx
	movq	%rcx, 56(%rbx)
	movq	-80(%rsp), %rcx
	addq	%r14, %rcx
	movq	%rcx, 64(%rbx)
	movq	-24(%rsp), %rcx
	addq	%r12, %rcx
	movq	%rcx, 72(%rbx)
	movq	%rax, %rcx
	andq	%rsi, %rax
	shrq	$51, %rcx
	leaq	(%rcx,%rbp,2), %rbp
	movq	%rbp, %rcx
	shrq	$51, %rcx
	leaq	(%rcx,%r11,2), %r11
	movq	%r11, %rcx
	shrq	$51, %rcx
	leaq	(%rcx,%r10,2), %r10
	movq	%r10, %rcx
	shrq	$51, %rcx
	leaq	(%rcx,%r13,2), %rcx
	movq	%rcx, %r13
	shrq	$51, %r13
	leaq	0(%r13,%r13,8), %r14
	leaq	0(%r13,%r14,2), %r13
	movq	%rbx, %r14
	addq	%r13, %rax
	movq	%rax, %r13
	shrq	$51, %r13
	andq	%rsi, %rbp
	andq	%rsi, %rax
	andq	%rsi, %r10
	addq	%r13, %rbp
	andq	%rsi, %rcx
	andq	%rsi, %r11
	movq	%rbp, %r13
	shrq	$51, %rbp
	andq	%rsi, %r13
	leaq	(%rax,%r9), %rsi
	addq	%rbp, %r11
	movq	%rsi, 80(%rbx)
	leaq	0(%r13,%r8), %rsi
	addq	%r15, %r13
	movq	%rsi, 88(%rbx)
	leaq	(%r11,%rdi), %rsi
	addq	%r15, %r11
	subq	%r8, %r13
	movq	%rsi, 96(%rbx)
	movq	16(%rsp), %rbx
	subq	%rdi, %r11
	movq	%r13, 128(%r14)
	leaq	(%r10,%rbx), %rsi
	addq	%r15, %r10
	movq	%r11, 136(%r14)
	movq	%rsi, 104(%r14)
	leaq	(%rcx,%rdx), %rsi
	addq	%r15, %rcx
	subq	%rbx, %r10
	movq	%rsi, 112(%r14)
	subq	%rdx, %rcx
	movabsq	$4503599627370458, %rsi
	addq	%rsi, %rax
	movq	%r10, 144(%r14)
	subq	%r9, %rax
	movq	%rcx, 152(%r14)
	movq	%rax, 120(%r14)
	addq	$48, %rsp
	.cfi_def_cfa_offset 56
	popq	%rbx
	.cfi_def_cfa_offset 48
	popq	%rbp
	.cfi_def_cfa_offset 40
	popq	%r12
	.cfi_def_cfa_offset 32
	popq	%r13
	.cfi_def_cfa_offset 24
	popq	%r14
	.cfi_def_cfa_offset 16
	popq	%r15
	.cfi_def_cfa_offset 8
	ret
	.cfi_endproc
.LFE76:
	.size	ge_madd, .-ge_madd
	.p2align 4
	.type	ge_p2_dbl, @function
ge_p2_dbl:
.LFB77:
	.cfi_startproc
	pushq	%r15
	.cfi_def_cfa_offset 16
	.cfi_offset 15, -16
	pushq	%r14
	.cfi_def_cfa_offset 24
	.cfi_offset 14, -24
	pushq	%r13
	.cfi_def_cfa_offset 32
	.cfi_offset 13, -32
	pushq	%r12
	.cfi_def_cfa_offset 40
	.cfi_offset 12, -40
	pushq	%rbp
	.cfi_def_cfa_offset 48
	.cfi_offset 6, -48
	pushq	%rbx
	.cfi_def_cfa_offset 56
	.cfi_offset 3, -56
	subq	$144, %rsp
	.cfi_def_cfa_offset 200
	movq	32(%rsi), %r12
	movq	24(%rsi), %r9
	movq	16(%rsi), %r13
	movq	8(%rsi), %rbp
	movq	%rdi, 128(%rsp)
	leaq	(%r12,%r12,8), %rax
	movq	%r12, -48(%rsp)
	movq	(%rsi), %rbx
	leaq	(%r9,%r9), %rdi
	leaq	(%r12,%rax,2), %r8
	leaq	(%r9,%r9,8), %rax
	movq	%r13, -40(%rsp)
	leaq	(%r9,%rax,2), %r11
	leaq	(%r8,%r8), %r12
	movq	%r9, 64(%rsp)
	leaq	(%r11,%r11), %r15
	leaq	(%r13,%r13), %rcx
	movq	%rbx, -32(%rsp)
	movq	%r15, %rax
	mulq	%r13
	movq	%rax, %r14
	movq	%r12, %rax
	movq	%rdx, %r15
	mulq	%rbp
	addq	%rax, %r14
	movq	%rbx, %rax
	adcq	%rdx, %r15
	mulq	%rbx
	addq	%rax, %r14
	movq	%r11, %rax
	adcq	%rdx, %r15
	mulq	%r9
	movq	%r14, -120(%rsp)
	movq	%r15, -112(%rsp)
	movq	%rax, %r10
	movq	%r13, %rax
	movq	%rdx, %r11
	mulq	%r12
	addq	%rax, %r10
	leaq	(%rbp,%rbp), %rax
	adcq	%rdx, %r11
	mulq	%rbx
	addq	%r10, %rax
	adcq	%r11, %rdx
	shrdq	$51, %r15, %r14
	xorl	%r11d, %r11d
	addq	%r14, %rax
	adcq	%r11, %rdx
	movq	%rax, %r14
	movq	%r12, %rax
	movq	%rdx, %r15
	mulq	%r9
	movq	%rax, %r12
	movq	%rbx, %rax
	movq	%rdx, %r13
	mulq	%rcx
	movq	%rax, %r10
	movq	%rdx, %r11
	movq	%rbp, %rax
	addq	%r12, %r10
	movq	%r14, %r12
	adcq	%r13, %r11
	mulq	%rbp
	movq	-32(%rsp), %r13
	addq	%rax, %r10
	movq	%r8, %rax
	adcq	%rdx, %r11
	shrdq	$51, %r15, %r12
	xorl	%edx, %edx
	movq	56(%rsi), %r15
	addq	%r12, %r10
	movq	-48(%rsp), %r12
	adcq	%rdx, %r11
	mulq	%r12
	leaq	(%r12,%r12), %rbx
	movq	%rax, %r8
	movq	%rcx, %rax
	movq	%rdx, %r9
	movq	%r10, %rcx
	mulq	%rbp
	addq	%rax, %r8
	movq	%r13, %rax
	adcq	%rdx, %r9
	mulq	%rdi
	addq	%rax, %r8
	movq	%rbx, %rax
	movq	-40(%rsp), %rbx
	adcq	%rdx, %r9
	shrdq	$51, %r11, %rcx
	xorl	%edx, %edx
	addq	%rcx, %r8
	movabsq	$2251799813685247, %rcx
	adcq	%rdx, %r9
	movq	%r8, %rdx
	andq	%rcx, %rdx
	movq	%rdx, 72(%rsp)
	mulq	%r13
	movq	%rax, %r12
	movq	%rdi, %rax
	movq	%rdx, %r13
	mulq	%rbp
	addq	%rax, %r12
	movq	%rbx, %rax
	adcq	%rdx, %r13
	mulq	%rbx
	addq	%rax, %r12
	adcq	%rdx, %r13
	shrdq	$51, %r9, %r8
	xorl	%edx, %edx
	addq	%r8, %r12
	adcq	%rdx, %r13
	movq	%r12, %r8
	movq	-120(%rsp), %rdx
	andq	%rcx, %r14
	shrdq	$51, %r13, %r12
	andq	%rcx, %r10
	andq	%rcx, %r8
	leaq	(%r12,%r12,8), %rax
	andq	%rcx, %rdx
	movq	%r8, 80(%rsp)
	leaq	(%r12,%rax,2), %rax
	addq	%rdx, %rax
	movq	%rax, %rdi
	shrq	$51, %rax
	addq	%rax, %r14
	andq	%rcx, %rdi
	movq	%r14, %rdx
	shrq	$51, %r14
	movq	%rdi, 88(%rsp)
	leaq	(%r15,%r15), %rdi
	andq	%rcx, %rdx
	leaq	(%r10,%r14), %r11
	movq	%rdx, 16(%rsp)
	movq	72(%rsi), %rdx
	movq	%r11, 24(%rsp)
	leaq	(%rdx,%rdx,8), %rax
	movq	%rdx, -88(%rsp)
	leaq	(%rdx,%rax,2), %r9
	movq	64(%rsi), %rdx
	movq	48(%rsi), %r12
	movq	%r15, -56(%rsp)
	leaq	(%r9,%r9), %r8
	movq	40(%rsi), %r11
	leaq	(%rdx,%rdx,8), %rax
	movq	%rdx, -72(%rsp)
	leaq	(%rdx,%rdx), %rbx
	leaq	(%rdx,%rax,2), %r10
	movq	%r11, %r13
	movq	%r12, -120(%rsp)
	leaq	(%r10,%r10), %r14
	movq	%r13, -104(%rsp)
	movq	%r14, %rax
	mulq	%r15
	movq	%rax, %r14
	movq	%r12, %rax
	movq	%rdx, %r15
	mulq	%r8
	addq	%rax, %r14
	movq	%r11, %rax
	adcq	%rdx, %r15
	mulq	%r11
	addq	%rax, %r14
	movq	%r10, %rax
	adcq	%rdx, %r15
	mulq	-72(%rsp)
	movq	%r14, -8(%rsp)
	movq	%r15, (%rsp)
	movq	%rax, %r10
	movq	-56(%rsp), %rax
	movq	%rdx, %r11
	mulq	%r8
	addq	%rax, %r10
	leaq	(%r12,%r12), %rax
	movq	%r14, %r12
	adcq	%rdx, %r11
	mulq	%r13
	addq	%r10, %rax
	adcq	%r11, %rdx
	shrdq	$51, %r15, %r12
	xorl	%r15d, %r15d
	movq	%r12, %r14
	addq	%rax, %r14
	movq	%r8, %rax
	movq	-120(%rsp), %r8
	adcq	%rdx, %r15
	mulq	-72(%rsp)
	movq	%rax, %r10
	movq	-104(%rsp), %rax
	movq	%rdx, %r11
	mulq	%rdi
	addq	%rax, %r10
	movq	%r8, %rax
	adcq	%rdx, %r11
	mulq	%r8
	addq	%r10, %rax
	adcq	%r11, %rdx
	movq	%r14, %r11
	shrdq	$51, %r15, %r11
	movq	%r11, %r12
	xorl	%r11d, %r11d
	addq	%r12, %rax
	adcq	%r11, %rdx
	movq	%rax, %r12
	movq	%r9, %rax
	movq	%rdx, %r13
	mulq	-88(%rsp)
	movq	%r12, %r10
	movq	%rax, %r8
	movq	%rdi, %rax
	movq	-120(%rsp), %rdi
	movq	%rdx, %r9
	mulq	%rdi
	addq	%rax, %r8
	movq	-104(%rsp), %rax
	adcq	%rdx, %r9
	mulq	%rbx
	addq	%r8, %rax
	adcq	%r9, %rdx
	shrdq	$51, %r13, %r10
	xorl	%r9d, %r9d
	movq	%r10, %r8
	addq	%rax, %r8
	movq	%r8, %r10
	adcq	%rdx, %r9
	andq	%rcx, %r10
	movq	%r10, -24(%rsp)
	movq	-88(%rsp), %r10
	addq	%r10, %r10
	movq	%r10, %rax
	mulq	-104(%rsp)
	movq	%rax, %r10
	movq	%rbx, %rax
	movq	%rdx, %r11
	movq	112(%rsi), %rbx
	mulq	%rdi
	movq	-56(%rsp), %rdi
	addq	%rax, %r10
	movq	%rdi, %rax
	adcq	%rdx, %r11
	mulq	%rdi
	movq	88(%rsi), %rdi
	addq	%rax, %r10
	adcq	%rdx, %r11
	shrdq	$51, %r9, %r8
	xorl	%edx, %edx
	addq	%r8, %r10
	adcq	%rdx, %r11
	movq	%r10, %r8
	andq	%rcx, %r14
	shrdq	$51, %r11, %r10
	andq	%rcx, %r8
	leaq	(%r10,%r10,8), %rax
	movq	%r8, -16(%rsp)
	leaq	(%r10,%rax,2), %rdx
	movq	-8(%rsp), %rax
	andq	%rcx, %rax
	addq	%rax, %rdx
	movq	%r14, %rax
	movq	%rdx, %r8
	shrq	$51, %rdx
	addq	%rdx, %rax
	andq	%rcx, %r8
	movq	%rax, %r14
	shrq	$51, %rax
	movq	%r8, 56(%rsp)
	movq	104(%rsi), %r8
	andq	%rcx, %r14
	movq	%r14, -8(%rsp)
	movq	%r12, %r14
	leaq	(%r8,%r8), %r15
	andq	%rcx, %r14
	movq	%r15, 32(%rsp)
	leaq	(%r14,%rax), %r14
	leaq	(%rbx,%rbx,8), %rax
	movq	%r14, 8(%rsp)
	leaq	(%rbx,%rax,2), %r14
	leaq	(%r8,%r8,8), %rax
	leaq	(%r14,%r14), %r9
	movq	%r14, 120(%rsp)
	movq	96(%rsi), %r14
	leaq	(%r14,%r14), %r10
	movq	%r14, %r12
	movq	%r10, 40(%rsp)
	leaq	(%r8,%rax,2), %r10
	movq	80(%rsi), %rsi
	leaq	(%r10,%r10), %r15
	movq	%r12, 96(%rsp)
	movq	%r15, %rax
	mulq	%r14
	movq	%rax, %r14
	movq	%r9, %rax
	movq	%rdx, %r15
	mulq	%rdi
	addq	%rax, %r14
	movq	%rsi, %rax
	adcq	%rdx, %r15
	mulq	%rsi
	addq	%rax, %r14
	movq	%r10, %rax
	adcq	%rdx, %r15
	mulq	%r8
	movq	%r14, 104(%rsp)
	movq	%r15, 112(%rsp)
	movq	%rax, %r10
	movq	%r12, %rax
	movq	%rdx, %r11
	movq	%r14, %r12
	mulq	%r9
	addq	%rax, %r10
	leaq	(%rdi,%rdi), %rax
	adcq	%rdx, %r11
	mulq	%rsi
	addq	%r10, %rax
	adcq	%r11, %rdx
	shrdq	$51, %r15, %r12
	xorl	%r15d, %r15d
	movq	%r12, %r14
	addq	%rax, %r14
	movq	%r8, %rax
	adcq	%rdx, %r15
	mulq	%r9
	movq	%r14, %r10
	movq	%rax, %r8
	movq	40(%rsp), %rax
	movq	%rdx, %r9
	mulq	%rsi
	addq	%rax, %r8
	movq	%rdi, %rax
	adcq	%rdx, %r9
	mulq	%rdi
	addq	%r8, %rax
	adcq	%r9, %rdx
	shrdq	$51, %r15, %r10
	xorl	%r13d, %r13d
	movq	%r10, %r12
	addq	%rax, %r12
	movq	120(%rsp), %rax
	adcq	%rdx, %r13
	movq	%r12, %r10
	mulq	%rbx
	movq	%rax, %r8
	movq	40(%rsp), %rax
	movq	%rdx, %r9
	mulq	%rdi
	addq	%rax, %r8
	movq	32(%rsp), %rax
	adcq	%rdx, %r9
	mulq	%rsi
	addq	%r8, %rax
	adcq	%r9, %rdx
	shrdq	$51, %r13, %r10
	xorl	%r9d, %r9d
	movq	-32(%rsp), %r13
	movq	%r10, %r8
	leaq	(%rbx,%rbx), %r10
	addq	%rax, %r8
	movq	%r10, %rax
	adcq	%rdx, %r9
	mulq	%rsi
	movq	%r8, 40(%rsp)
	movq	96(%rsp), %r8
	movq	%r9, 48(%rsp)
	movq	48(%rsp), %r9
	movq	%rax, %r10
	movq	32(%rsp), %rax
	movq	%rdx, %r11
	movq	%r10, %rsi
	movq	104(%rsp), %r10
	mulq	%rdi
	movq	%r11, %rdi
	addq	%rax, %rsi
	movq	%r8, %rax
	adcq	%rdx, %rdi
	mulq	%r8
	movq	40(%rsp), %r8
	addq	%rax, %rsi
	adcq	%rdx, %rdi
	shrdq	$51, %r9, %r8
	xorl	%edx, %edx
	addq	%r8, %rsi
	adcq	%rdx, %rdi
	movq	%rsi, %rax
	andq	%rcx, %r10
	andq	%rcx, %r14
	shrdq	$51, %rdi, %rax
	andq	%rcx, %rsi
	leaq	(%rax,%rax,8), %rdx
	leaq	(%rax,%rdx,2), %rax
	addq	%r10, %rax
	movq	%rax, %r15
	andq	%rcx, %rax
	shrq	$51, %r15
	leaq	(%rax,%rax), %r9
	shrq	$50, %rax
	addq	%r15, %r14
	andq	%rcx, %r9
	movq	%r14, %r15
	shrq	$51, %r14
	andq	%rcx, %r15
	leaq	(%rax,%r15,2), %r10
	movq	%r12, %rax
	movq	%r15, %rdx
	movq	-48(%rsp), %r12
	andq	%rcx, %rax
	shrq	$50, %rdx
	andq	%rcx, %r10
	addq	%rax, %r14
	movq	40(%rsp), %rax
	leaq	(%rdx,%r14,2), %r14
	movq	%r14, 32(%rsp)
	andq	%rcx, %rax
	shrq	$51, %r14
	leaq	(%r14,%rax,2), %r8
	movq	%r8, 40(%rsp)
	shrq	$51, %r8
	leaq	(%r8,%rsi,2), %rsi
	movq	%rsi, 96(%rsp)
	shrq	$51, %rsi
	leaq	(%rsi,%rsi,8), %rdx
	leaq	(%rsi,%rdx,2), %rax
	movq	-72(%rsp), %rdx
	movq	-104(%rsp), %rsi
	leaq	(%rax,%r9), %r15
	movq	64(%rsp), %r9
	movq	%r15, 104(%rsp)
	shrq	$51, %r15
	leaq	(%rsi,%r13), %rbx
	movq	-120(%rsp), %rsi
	leaq	(%r15,%r10), %r8
	movq	-40(%rsp), %r13
	movq	-56(%rsp), %r15
	movq	%r8, 120(%rsp)
	leaq	(%rdx,%r9), %r8
	movq	-88(%rsp), %rdx
	addq	%rbp, %rsi
	leaq	(%r15,%r13), %rbp
	leaq	(%rdx,%r12), %rdi
	leaq	(%rbp,%rbp), %r11
	leaq	(%rdi,%rdi,8), %rax
	leaq	(%r8,%r8), %r12
	leaq	(%rdi,%rax,2), %r9
	leaq	(%r8,%r8,8), %rax
	movq	%r12, -120(%rsp)
	leaq	(%r8,%rax,2), %r10
	movq	%r9, -104(%rsp)
	addq	%r9, %r9
	leaq	(%r10,%r10), %r13
	movq	%r11, -56(%rsp)
	movq	%r13, %rax
	mulq	%rbp
	movq	%rax, %r14
	movq	%r9, %rax
	movq	%rdx, %r15
	mulq	%rsi
	addq	%rax, %r14
	movq	%rbx, %rax
	adcq	%rdx, %r15
	mulq	%rbx
	addq	%rax, %r14
	movq	%r10, %rax
	adcq	%rdx, %r15
	mulq	%r8
	movq	%r14, %r12
	movq	%rax, %r10
	movq	%r9, %rax
	movq	%rdx, %r11
	mulq	%rbp
	addq	%rax, %r10
	leaq	(%rsi,%rsi), %rax
	adcq	%rdx, %r11
	mulq	%rbx
	addq	%r10, %rax
	adcq	%r11, %rdx
	shrdq	$51, %r15, %r12
	xorl	%r11d, %r11d
	movq	80(%rsp), %r15
	addq	%r12, %rax
	adcq	%r11, %rdx
	movq	%rax, %r12
	movq	%r8, %rax
	movq	%rdx, %r13
	mulq	%r9
	movq	%r12, %r10
	movq	%rax, %r8
	movq	-56(%rsp), %rax
	movq	%rdx, %r9
	mulq	%rbx
	addq	%rax, %r8
	movq	%rsi, %rax
	adcq	%rdx, %r9
	mulq	%rsi
	addq	%r8, %rax
	adcq	%r9, %rdx
	shrdq	$51, %r13, %r10
	xorl	%r9d, %r9d
	movq	72(%rsp), %r13
	addq	%r10, %rax
	movq	%rax, %r10
	movq	-104(%rsp), %rax
	adcq	%r9, %rdx
	movq	%rdx, %r11
	movq	%r10, -104(%rsp)
	mulq	%rdi
	movq	%r11, -96(%rsp)
	movq	%rax, %r8
	movq	-56(%rsp), %rax
	movq	%rdx, %r9
	mulq	%rsi
	addq	%rax, %r8
	movq	-120(%rsp), %rax
	adcq	%rdx, %r9
	mulq	%rbx
	addq	%r8, %rax
	leaq	(%rdi,%rdi), %r8
	adcq	%r9, %rdx
	shrdq	$51, %r11, %r10
	xorl	%r9d, %r9d
	addq	%r10, %rax
	adcq	%r9, %rdx
	movq	%rax, %r10
	movq	%r8, %rax
	movq	%rdx, %r11
	mulq	%rbx
	movq	%r10, -88(%rsp)
	movq	%r11, -80(%rsp)
	movq	%rax, %r8
	movq	-120(%rsp), %rax
	movq	%rdx, %r9
	mulq	%rsi
	movq	%rax, %rsi
	movq	%rdx, %rdi
	movq	%rbp, %rax
	addq	%r8, %rsi
	movq	%r10, %r8
	adcq	%r9, %rdi
	mulq	%rbp
	movq	-8(%rsp), %rbp
	addq	%rsi, %rax
	movq	88(%rsp), %rsi
	adcq	%rdi, %rdx
	shrdq	$51, %r11, %r8
	xorl	%edi, %edi
	addq	%r8, %rax
	movq	%rsi, %r11
	adcq	%rdi, %rdx
	movq	%rax, -72(%rsp)
	andq	%rcx, %r14
	andq	%rcx, %r12
	shrdq	$51, %rdx, %rax
	movq	%rdx, -64(%rsp)
	movq	56(%rsp), %rdi
	leaq	(%rax,%rax,8), %rdx
	leaq	(%rax,%rdx,2), %rdx
	addq	%rdi, %r11
	movq	128(%rsp), %rax
	addq	%rdx, %r14
	movq	8(%rsp), %rdx
	movq	%r14, %r9
	movq	%r11, 40(%rax)
	andq	%rcx, %r14
	shrq	$51, %r9
	leaq	(%r12,%r9), %rbx
	movq	16(%rsp), %r9
	movq	24(%rsp), %r12
	movq	%rbx, -48(%rsp)
	movq	-16(%rsp), %rbx
	leaq	0(%rbp,%r9), %r10
	movq	-24(%rsp), %rbp
	leaq	(%rdx,%r12), %r9
	movabsq	$4503599627370494, %rdx
	movq	%r10, 48(%rax)
	leaq	0(%rbp,%r13), %r8
	leaq	(%rbx,%r15), %rbp
	movq	%r9, 56(%rax)
	movabsq	$4503599627370458, %rbx
	leaq	(%rdi,%rbx), %rdi
	movq	%r8, 64(%rax)
	addq	%rbx, %r14
	subq	%rsi, %rdi
	movq	-8(%rsp), %rsi
	movq	%rbp, 72(%rax)
	addq	%rdx, %rsi
	movq	%rsi, %r12
	movq	16(%rsp), %rsi
	subq	%rsi, %r12
	movq	%r12, -120(%rsp)
	movq	8(%rsp), %r12
	leaq	(%r12,%rdx), %rsi
	movq	%rsi, %r12
	movq	24(%rsp), %rsi
	movq	%rdi, 80(%rax)
	subq	%rsi, %r12
	movq	-24(%rsp), %rsi
	movq	%r12, -56(%rsp)
	movq	-120(%rsp), %r12
	addq	%rdx, %rsi
	subq	%r13, %rsi
	movq	%r12, 88(%rax)
	movq	-56(%rsp), %r12
	movq	%rsi, %r13
	movq	-16(%rsp), %rsi
	movq	%r12, 96(%rax)
	addq	%rdx, %rsi
	movq	%r13, 104(%rax)
	subq	%r15, %rsi
	movq	%rsi, 112(%rax)
	movq	%rsi, %r15
	movq	%r11, %rsi
	andq	%rcx, %r11
	shrq	$51, %rsi
	addq	%r10, %rsi
	movq	%rsi, %r10
	andq	%rcx, %rsi
	shrq	$51, %r10
	addq	%r9, %r10
	movq	%r10, %r9
	shrq	$51, %r9
	addq	%r8, %r9
	movq	%r9, %r8
	shrq	$51, %r8
	addq	%rbp, %r8
	movq	%r8, %rbp
	shrq	$51, %rbp
	leaq	0(%rbp,%rbp,8), %r12
	leaq	0(%rbp,%r12,2), %rbp
	addq	%rbp, %r11
	movq	%r11, %rbp
	andq	%rcx, %r11
	shrq	$51, %rbp
	addq	%rbp, %rsi
	subq	%r11, %r14
	andq	%rcx, %r10
	andq	%rcx, %r9
	movq	%r14, (%rax)
	movq	-48(%rsp), %r14
	movq	%rsi, %rbp
	shrq	$51, %rsi
	andq	%rcx, %rbp
	andq	%rcx, %r8
	movq	%r14, %r11
	shrq	$51, %r14
	andq	%rcx, %r11
	movq	%r14, %r12
	movq	%rax, %r14
	addq	%rdx, %r11
	subq	%rbp, %r11
	movq	%r11, 8(%rax)
	movq	-104(%rsp), %r11
	andq	%rcx, %r11
	addq	%rdx, %r11
	addq	%r11, %r12
	movq	-88(%rsp), %r11
	subq	%r10, %r12
	andq	%rcx, %r11
	subq	%rsi, %r12
	movq	%r11, %rsi
	movq	%r12, 16(%rax)
	movq	-120(%rsp), %r12
	addq	%rdx, %rsi
	subq	%r9, %rsi
	movq	%rsi, 24(%rax)
	movq	-72(%rsp), %rax
	andq	%rcx, %rax
	addq	%rdx, %rax
	subq	%r8, %rax
	movq	%rax, 32(%r14)
	movq	%rdi, %rax
	andq	%rcx, %rdi
	shrq	$51, %rax
	movq	%rax, %r8
	addq	%r12, %r8
	movq	-56(%rsp), %r12
	movq	%r8, %r9
	shrq	$51, %r9
	addq	%r12, %r9
	movq	%r9, %rax
	shrq	$51, %rax
	movq	%rax, %rsi
	addq	%r13, %rsi
	movq	%rsi, %rax
	shrq	$51, %rax
	addq	%r15, %rax
	movq	%rax, %r11
	shrq	$51, %r11
	movq	%r11, %r10
	leaq	(%r11,%r11,8), %r11
	leaq	(%r10,%r11,2), %r10
	addq	%r10, %rdi
	movq	104(%rsp), %r10
	movq	%rdi, %r11
	shrq	$51, %r11
	andq	%rcx, %r10
	andq	%rcx, %rdi
	andq	%rcx, %r8
	addq	%rbx, %r10
	movq	120(%rsp), %rbx
	addq	%r11, %r8
	andq	%rcx, %r9
	subq	%rdi, %r10
	andq	%rcx, %rsi
	andq	%rcx, %rax
	movq	%rbx, %r15
	movq	%r10, 120(%r14)
	movq	%r8, %r10
	shrq	$51, %rbx
	andq	%rcx, %r15
	andq	%rcx, %r10
	shrq	$51, %r8
	movq	%r15, %rdi
	addq	%rdx, %rdi
	subq	%r10, %rdi
	movq	%rdi, 128(%r14)
	movq	32(%rsp), %rdi
	andq	%rcx, %rdi
	addq	%rdx, %rdi
	subq	%r9, %rdi
	addq	%rbx, %rdi
	subq	%r8, %rdi
	movq	%rdi, 136(%r14)
	movq	40(%rsp), %rdi
	andq	%rcx, %rdi
	addq	%rdx, %rdi
	subq	%rsi, %rdi
	movq	96(%rsp), %rsi
	movq	%rdi, 144(%r14)
	andq	%rcx, %rsi
	addq	%rsi, %rdx
	subq	%rax, %rdx
	movq	%rdx, 152(%r14)
	addq	$144, %rsp
	.cfi_def_cfa_offset 56
	popq	%rbx
	.cfi_def_cfa_offset 48
	popq	%rbp
	.cfi_def_cfa_offset 40
	popq	%r12
	.cfi_def_cfa_offset 32
	popq	%r13
	.cfi_def_cfa_offset 24
	popq	%r14
	.cfi_def_cfa_offset 16
	popq	%r15
	.cfi_def_cfa_offset 8
	ret
	.cfi_endproc
.LFE77:
	.size	ge_p2_dbl, .-ge_p2_dbl
	.p2align 4
	.globl	SHA512_Init
	.type	SHA512_Init, @function
SHA512_Init:
.LFB8:
	.cfi_startproc
	movdqa	.LC0(%rip), %xmm0
	movq	.LC4(%rip), %rax
	movups	%xmm0, (%rdi)
	movdqa	.LC1(%rip), %xmm0
	movq	%rax, 208(%rdi)
	movl	$1, %eax
	movups	%xmm0, 16(%rdi)
	movdqa	.LC2(%rip), %xmm0
	movups	%xmm0, 32(%rdi)
	movdqa	.LC3(%rip), %xmm0
	movups	%xmm0, 48(%rdi)
	pxor	%xmm0, %xmm0
	movups	%xmm0, 64(%rdi)
	ret
	.cfi_endproc
.LFE8:
	.size	SHA512_Init, .-SHA512_Init
	.p2align 4
	.globl	SHA512_Final
	.type	SHA512_Final, @function
SHA512_Final:
.LFB9:
	.cfi_startproc
	pushq	%r13
	.cfi_def_cfa_offset 16
	.cfi_offset 13, -16
	leaq	80(%rsi), %r13
	pushq	%r12
	.cfi_def_cfa_offset 24
	.cfi_offset 12, -24
	pushq	%rbp
	.cfi_def_cfa_offset 32
	.cfi_offset 6, -32
	movq	%rdi, %rbp
	pushq	%rbx
	.cfi_def_cfa_offset 40
	.cfi_offset 3, -40
	movq	%rsi, %rbx
	subq	$8, %rsp
	.cfi_def_cfa_offset 48
	movl	208(%rsi), %eax
	movl	212(%rsi), %r12d
	movb	$-128, 80(%rsi,%rax)
	addq	$1, %rax
	leaq	0(%r13,%rax), %rsi
	cmpq	$112, %rax
	jbe	.L90
	movl	$128, %edx
	subq	%rax, %rdx
	jne	.L150
.L91:
	movl	$1, %edx
	movq	%r13, %rsi
	movq	%rbx, %rdi
	call	sha512_block_data_order
	movq	%r13, %rsi
	movl	$112, %edx
.L98:
	movl	%edx, %ecx
	cmpl	$8, %edx
	jb	.L151
	leaq	8(%rsi), %rdi
	movl	%edx, %eax
	movq	$0, (%rsi)
	movq	$0, -8(%rsi,%rax)
	andq	$-8, %rdi
	xorl	%eax, %eax
	subq	%rdi, %rsi
	leal	(%rdx,%rsi), %ecx
	shrl	$3, %ecx
	rep stosq
.L99:
	movq	72(%rbx), %rax
	movq	64(%rbx), %rdx
	movq	%r13, %rsi
	movq	%rbx, %rdi
	bswap	%rdx
	bswap	%rax
	movq	%rdx, %xmm1
	movq	%rax, %xmm0
	punpcklqdq	%xmm1, %xmm0
	movl	$1, %edx
	movups	%xmm0, 192(%rbx)
	call	sha512_block_data_order
	testq	%rbp, %rbp
	je	.L108
	shrq	$3, %r12
	je	.L107
	movq	(%rbx), %rax
	bswap	%rax
	movq	%rax, 0(%rbp)
	cmpq	$1, %r12
	je	.L107
	movq	8(%rbx), %rax
	bswap	%rax
	movq	%rax, 8(%rbp)
	cmpq	$2, %r12
	je	.L107
	movq	16(%rbx), %rax
	bswap	%rax
	movq	%rax, 16(%rbp)
	cmpq	$3, %r12
	je	.L107
	movq	24(%rbx), %rax
	bswap	%rax
	movq	%rax, 24(%rbp)
	cmpq	$4, %r12
	je	.L107
	movq	32(%rbx), %rax
	bswap	%rax
	movq	%rax, 32(%rbp)
	cmpq	$5, %r12
	je	.L107
	movq	40(%rbx), %rax
	bswap	%rax
	movq	%rax, 40(%rbp)
	cmpq	$6, %r12
	je	.L107
	movq	48(%rbx), %rax
	bswap	%rax
	movq	%rax, 48(%rbp)
	cmpq	$7, %r12
	je	.L107
	movq	56(%rbx), %rax
	bswap	%rax
	movq	%rax, 56(%rbp)
.L107:
	addq	$8, %rsp
	.cfi_remember_state
	.cfi_def_cfa_offset 40
	movl	$1, %eax
	popq	%rbx
	.cfi_def_cfa_offset 32
	popq	%rbp
	.cfi_def_cfa_offset 24
	popq	%r12
	.cfi_def_cfa_offset 16
	popq	%r13
	.cfi_def_cfa_offset 8
	ret
	.p2align 4,,10
	.p2align 3
.L151:
	.cfi_restore_state
	andl	$4, %edx
	jne	.L152
	testl	%ecx, %ecx
	je	.L99
	movb	$0, (%rsi)
	testb	$2, %cl
	je	.L99
	xorl	%eax, %eax
	movw	%ax, -2(%rsi,%rcx)
	jmp	.L99
	.p2align 4,,10
	.p2align 3
.L150:
	xorl	%edi, %edi
	cmpq	$8, %rdx
	jb	.L153
	leaq	8(%rsi), %rcx
	movq	$0, (%rsi)
	movq	$0, -8(%rsi,%rdx)
	andq	$-8, %rcx
	subq	%rcx, %rsi
	addq	%rsi, %rdx
	andq	$-8, %rdx
	cmpq	$8, %rdx
	jb	.L91
	andq	$-8, %rdx
	xorl	%eax, %eax
.L96:
	movq	%rdi, (%rcx,%rax)
	addq	$8, %rax
	cmpq	%rdx, %rax
	jb	.L96
	jmp	.L91
	.p2align 4,,10
	.p2align 3
.L90:
	movl	$112, %edx
	subq	%rax, %rdx
	je	.L99
	jmp	.L98
	.p2align 4,,10
	.p2align 3
.L153:
	testb	$4, %dl
	jne	.L154
	testq	%rdx, %rdx
	je	.L91
	movb	$0, (%rsi)
	testb	$2, %dl
	je	.L91
	xorl	%ecx, %ecx
	movw	%cx, -2(%rsi,%rdx)
	jmp	.L91
	.p2align 4,,10
	.p2align 3
.L108:
	addq	$8, %rsp
	.cfi_remember_state
	.cfi_def_cfa_offset 40
	xorl	%eax, %eax
	popq	%rbx
	.cfi_def_cfa_offset 32
	popq	%rbp
	.cfi_def_cfa_offset 24
	popq	%r12
	.cfi_def_cfa_offset 16
	popq	%r13
	.cfi_def_cfa_offset 8
	ret
.L152:
	.cfi_restore_state
	movl	$0, (%rsi)
	movl	$0, -4(%rsi,%rcx)
	jmp	.L99
.L154:
	movl	$0, (%rsi)
	movl	$0, -4(%rsi,%rdx)
	jmp	.L91
	.cfi_endproc
.LFE9:
	.size	SHA512_Final, .-SHA512_Final
	.p2align 4
	.globl	OPENSSL_cleanse
	.type	OPENSSL_cleanse, @function
OPENSSL_cleanse:
.LFB10:
	.cfi_startproc
	testq	%rsi, %rsi
	jne	.L164
	ret
	.p2align 4,,10
	.p2align 3
.L164:
	subq	$8, %rsp
	.cfi_def_cfa_offset 16
	movq	%rsi, %rdx
	xorl	%esi, %esi
	call	memset
	addq	$8, %rsp
	.cfi_def_cfa_offset 8
	ret
	.cfi_endproc
.LFE10:
	.size	OPENSSL_cleanse, .-OPENSSL_cleanse
	.p2align 4
	.globl	x25519_ge_p1p1_to_p2
	.type	x25519_ge_p1p1_to_p2, @function
x25519_ge_p1p1_to_p2:
.LFB35:
	.cfi_startproc
	pushq	%r15
	.cfi_def_cfa_offset 16
	.cfi_offset 15, -16
	movq	%rsi, %r10
	pushq	%r14
	.cfi_def_cfa_offset 24
	.cfi_offset 14, -24
	pushq	%r13
	.cfi_def_cfa_offset 32
	.cfi_offset 13, -32
	pushq	%r12
	.cfi_def_cfa_offset 40
	.cfi_offset 12, -40
	pushq	%rbp
	.cfi_def_cfa_offset 48
	.cfi_offset 6, -48
	movq	%rdi, %rbp
	pushq	%rbx
	.cfi_def_cfa_offset 56
	.cfi_offset 3, -56
	movq	152(%rsi), %rax
	movq	152(%rsi), %rbx
	movq	136(%rsi), %r11
	leaq	(%rax,%rax,8), %rax
	leaq	(%rbx,%rax,2), %rdi
	movq	144(%rsi), %rax
	movq	144(%rsi), %rbx
	movq	128(%rsi), %rsi
	leaq	(%rax,%rax,8), %rax
	leaq	(%rbx,%rax,2), %rcx
	leaq	(%r11,%r11,8), %rax
	leaq	(%r11,%rax,2), %r8
	leaq	(%rsi,%rsi,8), %rax
	leaq	(%rsi,%rax,2), %rbx
	movq	%rbx, %rax
	mulq	32(%r10)
	movq	%rax, %r14
	movq	%rdx, %r15
	movq	%r8, %rax
	mulq	24(%r10)
	addq	%rax, %r14
	movq	120(%r10), %rax
	adcq	%rdx, %r15
	mulq	(%r10)
	addq	%rax, %r14
	movq	%rcx, %rax
	adcq	%rdx, %r15
	mulq	16(%r10)
	addq	%rax, %r14
	movq	%rdi, %rax
	adcq	%rdx, %r15
	mulq	8(%r10)
	addq	%rax, %r14
	movq	8(%r10), %rax
	adcq	%rdx, %r15
	mulq	120(%r10)
	movq	%r14, %r12
	movq	%r15, %r13
	movq	%r12, -104(%rsp)
	movq	%rax, %r14
	movq	%rdx, %r15
	movq	%rsi, %rax
	mulq	(%r10)
	addq	%rax, %r14
	movq	%r8, %rax
	adcq	%rdx, %r15
	mulq	32(%r10)
	movq	%rax, %r8
	movq	%rdx, %r9
	movq	%rcx, %rax
	addq	%r14, %r8
	adcq	%r15, %r9
	mulq	24(%r10)
	addq	%rax, %r8
	movq	%rdi, %rax
	adcq	%rdx, %r9
	mulq	16(%r10)
	addq	%r8, %rax
	adcq	%r9, %rdx
	shrdq	$51, %r13, %r12
	xorl	%r15d, %r15d
	movq	%r12, %r14
	addq	%rax, %r14
	movq	16(%r10), %rax
	adcq	%rdx, %r15
	mulq	120(%r10)
	movq	%rax, %r12
	movq	%rdx, %r13
	movq	%rsi, %rax
	mulq	8(%r10)
	addq	%rax, %r12
	movq	%r11, %rax
	adcq	%rdx, %r13
	mulq	(%r10)
	addq	%rax, %r12
	movq	%rcx, %rax
	movq	%r14, %rcx
	adcq	%rdx, %r13
	mulq	32(%r10)
	movq	%rax, %r8
	movq	%rdx, %r9
	movq	%rdi, %rax
	addq	%r12, %r8
	adcq	%r13, %r9
	mulq	24(%r10)
	addq	%rax, %r8
	movq	24(%r10), %rax
	adcq	%rdx, %r9
	shrdq	$51, %r15, %rcx
	xorl	%edx, %edx
	addq	%rcx, %r8
	adcq	%rdx, %r9
	mulq	120(%r10)
	movq	%rax, %rcx
	movq	%rdx, %rbx
	movq	%rsi, %rax
	mulq	16(%r10)
	addq	%rax, %rcx
	movq	%r11, %rax
	adcq	%rdx, %rbx
	mulq	8(%r10)
	addq	%rax, %rcx
	movq	144(%r10), %rax
	adcq	%rdx, %rbx
	mulq	(%r10)
	movq	%rax, %r12
	movq	%rdx, %r13
	movq	%rdi, %rax
	addq	%rcx, %r12
	adcq	%rbx, %r13
	mulq	32(%r10)
	addq	%rax, %r12
	movq	%r8, %rax
	adcq	%rdx, %r13
	shrdq	$51, %r9, %rax
	xorl	%ebx, %ebx
	addq	%rax, %r12
	movq	32(%r10), %rax
	adcq	%rbx, %r13
	mulq	120(%r10)
	movq	%rax, %rcx
	movq	%rdx, %rbx
	movq	%rsi, %rax
	movq	%r12, %rsi
	mulq	24(%r10)
	addq	%rax, %rcx
	movq	%r11, %rax
	adcq	%rdx, %rbx
	mulq	16(%r10)
	addq	%rax, %rcx
	movq	8(%r10), %rax
	adcq	%rdx, %rbx
	mulq	144(%r10)
	addq	%rax, %rcx
	movq	(%r10), %rax
	adcq	%rdx, %rbx
	mulq	152(%r10)
	addq	%rax, %rcx
	adcq	%rdx, %rbx
	shrdq	$51, %r13, %rsi
	xorl	%edx, %edx
	movq	%rsi, %rax
	movq	-104(%rsp), %rsi
	addq	%rcx, %rax
	movabsq	$2251799813685247, %rcx
	adcq	%rbx, %rdx
	movq	%rax, -88(%rsp)
	andq	%rcx, %rsi
	andq	%rcx, %r14
	shrdq	$51, %rdx, %rax
	andq	%rcx, %r8
	andq	%rcx, %r12
	leaq	(%rax,%rax,8), %rdx
	movq	%r12, 24(%rbp)
	leaq	(%rax,%rdx,2), %rdx
	movq	-88(%rsp), %rax
	addq	%rsi, %rdx
	movq	%rdx, %rsi
	andq	%rcx, %rdx
	andq	%rcx, %rax
	shrq	$51, %rsi
	movq	%rdx, 0(%rbp)
	addq	%rsi, %r14
	movq	%rax, 32(%rbp)
	movq	%r14, %rdx
	shrq	$51, %r14
	addq	%r14, %r8
	andq	%rcx, %rdx
	movq	%r8, 16(%rbp)
	movq	%rdx, 8(%rbp)
	movq	112(%r10), %rax
	movq	112(%r10), %rbx
	movq	88(%r10), %rdi
	leaq	(%rax,%rax,8), %rax
	leaq	(%rbx,%rax,2), %r11
	movq	104(%r10), %rax
	movq	104(%r10), %rbx
	leaq	(%rax,%rax,8), %rax
	leaq	(%rbx,%rax,2), %rsi
	movq	96(%r10), %rbx
	leaq	(%rbx,%rbx,8), %rax
	leaq	(%rbx,%rax,2), %r8
	leaq	(%rdi,%rdi,8), %rax
	leaq	(%rdi,%rax,2), %r9
	movq	%r9, %rax
	mulq	72(%r10)
	movq	%rax, %r14
	movq	%rdx, %r15
	movq	%r8, %rax
	mulq	64(%r10)
	addq	%rax, %r14
	movq	80(%r10), %rax
	adcq	%rdx, %r15
	mulq	40(%r10)
	addq	%rax, %r14
	movq	%rsi, %rax
	adcq	%rdx, %r15
	mulq	56(%r10)
	addq	%rax, %r14
	movq	%r11, %rax
	adcq	%rdx, %r15
	mulq	48(%r10)
	addq	%rax, %r14
	movq	48(%r10), %rax
	adcq	%rdx, %r15
	mulq	80(%r10)
	movq	%r14, %r12
	movq	%r15, %r13
	movq	%r12, -104(%rsp)
	movq	%r13, -96(%rsp)
	movq	%rax, %r14
	movq	%rdx, %r15
	movq	%rdi, %rax
	mulq	40(%r10)
	addq	%rax, %r14
	movq	%r8, %rax
	adcq	%rdx, %r15
	mulq	72(%r10)
	movq	%rax, %r8
	movq	%rdx, %r9
	movq	%rsi, %rax
	addq	%r14, %r8
	adcq	%r15, %r9
	mulq	64(%r10)
	addq	%rax, %r8
	movq	%r11, %rax
	adcq	%rdx, %r9
	mulq	56(%r10)
	addq	%r8, %rax
	adcq	%r9, %rdx
	shrdq	$51, %r13, %r12
	xorl	%r9d, %r9d
	addq	%r12, %rax
	adcq	%r9, %rdx
	movq	%rax, %r14
	movq	56(%r10), %rax
	movq	%rdx, %r15
	mulq	80(%r10)
	movq	%r14, -88(%rsp)
	movq	%r15, -80(%rsp)
	movq	%rax, %r8
	movq	%rdx, %r9
	movq	%rdi, %rax
	mulq	48(%r10)
	addq	%rax, %r8
	movq	%rbx, %rax
	adcq	%rdx, %r9
	mulq	40(%r10)
	addq	%rax, %r8
	movq	%rsi, %rax
	adcq	%rdx, %r9
	mulq	72(%r10)
	addq	%rax, %r8
	movq	%r11, %rax
	adcq	%rdx, %r9
	mulq	64(%r10)
	addq	%r8, %rax
	movq	%r14, %r8
	adcq	%r9, %rdx
	shrdq	$51, %r15, %r8
	xorl	%r15d, %r15d
	movq	%r8, %r14
	addq	%rax, %r14
	movq	64(%r10), %rax
	adcq	%rdx, %r15
	mulq	80(%r10)
	movq	%rax, %r12
	movq	%rdx, %r13
	movq	%rdi, %rax
	mulq	56(%r10)
	addq	%rax, %r12
	movq	%rbx, %rax
	adcq	%rdx, %r13
	mulq	48(%r10)
	addq	%rax, %r12
	movq	104(%r10), %rax
	adcq	%rdx, %r13
	mulq	40(%r10)
	movq	%rax, %r8
	movq	%rdx, %r9
	movq	%r11, %rax
	addq	%r12, %r8
	adcq	%r13, %r9
	mulq	72(%r10)
	addq	%rax, %r8
	movq	%r14, %rax
	adcq	%rdx, %r9
	shrdq	$51, %r15, %rax
	xorl	%r13d, %r13d
	addq	%rax, %r8
	movq	72(%r10), %rax
	adcq	%r13, %r9
	mulq	80(%r10)
	movq	%rax, %r12
	movq	%rdx, %r13
	movq	%rdi, %rax
	mulq	64(%r10)
	movq	%r12, %rsi
	movq	%r13, %rdi
	addq	%rax, %rsi
	movq	%rbx, %rax
	movq	%r8, %rbx
	adcq	%rdx, %rdi
	mulq	56(%r10)
	addq	%rax, %rsi
	movq	48(%r10), %rax
	adcq	%rdx, %rdi
	mulq	104(%r10)
	addq	%rax, %rsi
	movq	40(%r10), %rax
	adcq	%rdx, %rdi
	mulq	112(%r10)
	addq	%rsi, %rax
	adcq	%rdi, %rdx
	shrdq	$51, %r9, %rbx
	xorl	%edi, %edi
	addq	%rbx, %rax
	adcq	%rdi, %rdx
	movq	%rax, %r11
	andq	%rcx, %r14
	andq	%rcx, %r8
	shrdq	$51, %rdx, %rax
	movq	%r8, 64(%rbp)
	leaq	(%rax,%rax,8), %rdx
	leaq	(%rax,%rdx,2), %rsi
	movq	-104(%rsp), %rdx
	movq	%r11, %rax
	andq	%rcx, %rax
	andq	%rcx, %rdx
	movq	%rax, 72(%rbp)
	addq	%rdx, %rsi
	movq	-88(%rsp), %rdx
	movq	%rsi, %rdi
	andq	%rcx, %rsi
	shrq	$51, %rdi
	andq	%rcx, %rdx
	movq	%rsi, 40(%rbp)
	addq	%rdi, %rdx
	movq	%rdx, %rsi
	shrq	$51, %rdx
	addq	%rdx, %r14
	andq	%rcx, %rsi
	movq	%rsi, 48(%rbp)
	movq	%r14, 56(%rbp)
	movq	152(%r10), %rbx
	movq	136(%r10), %r8
	movq	112(%r10), %r14
	leaq	(%rbx,%rbx,8), %rax
	movq	%rbx, -16(%rsp)
	movq	120(%r10), %r15
	leaq	(%rbx,%rax,2), %rax
	movq	144(%r10), %rbx
	movq	80(%r10), %r9
	movq	%rax, -72(%rsp)
	movq	96(%r10), %r11
	leaq	(%rbx,%rbx,8), %rax
	leaq	(%rbx,%rax,2), %rdi
	leaq	(%r8,%r8,8), %rax
	movq	%r11, -88(%rsp)
	movq	%rdi, -56(%rsp)
	leaq	(%r8,%rax,2), %rsi
	movq	128(%r10), %rdi
	movq	88(%r10), %rax
	movq	%rsi, -40(%rsp)
	movq	104(%r10), %rsi
	movq	%rax, -104(%rsp)
	leaq	(%rdi,%rdi,8), %rax
	movq	-104(%rsp), %r10
	leaq	(%rdi,%rax,2), %r13
	movq	%r13, %rax
	mulq	%r14
	movq	%rax, %r12
	movq	-40(%rsp), %rax
	movq	%rdx, %r13
	mulq	%rsi
	addq	%rax, %r12
	movq	%r15, %rax
	adcq	%rdx, %r13
	mulq	%r9
	addq	%rax, %r12
	movq	-56(%rsp), %rax
	adcq	%rdx, %r13
	mulq	%r11
	addq	%rax, %r12
	movq	-72(%rsp), %rax
	adcq	%rdx, %r13
	mulq	%r10
	addq	%rax, %r12
	movq	%r10, %rax
	adcq	%rdx, %r13
	mulq	%r15
	movq	%rax, %r10
	movq	%rdi, %rax
	movq	%rdx, %r11
	mulq	%r9
	addq	%rax, %r10
	movq	-40(%rsp), %rax
	adcq	%rdx, %r11
	mulq	%r14
	addq	%rax, %r10
	movq	-56(%rsp), %rax
	adcq	%rdx, %r11
	mulq	%rsi
	addq	%rax, %r10
	movq	-72(%rsp), %rax
	adcq	%rdx, %r11
	mulq	-88(%rsp)
	movq	%r12, -40(%rsp)
	movq	%r13, -32(%rsp)
	addq	%r10, %rax
	adcq	%r11, %rdx
	shrdq	$51, %r13, %r12
	xorl	%r11d, %r11d
	addq	%r12, %rax
	movq	%rax, %r12
	movq	-88(%rsp), %rax
	adcq	%r11, %rdx
	movq	%rdx, %r13
	mulq	%r15
	movq	%r13, -48(%rsp)
	movq	%rax, %r10
	movq	-104(%rsp), %rax
	movq	%rdx, %r11
	mulq	%rdi
	addq	%rax, %r10
	movq	%r8, %rax
	adcq	%rdx, %r11
	mulq	%r9
	addq	%rax, %r10
	movq	-56(%rsp), %rax
	movq	%r12, -56(%rsp)
	adcq	%rdx, %r11
	mulq	%r14
	addq	%rax, %r10
	movq	-72(%rsp), %rax
	adcq	%rdx, %r11
	mulq	%rsi
	addq	%r10, %rax
	adcq	%r11, %rdx
	movq	%r12, %r11
	shrdq	$51, %r13, %r11
	movq	%r11, %r12
	xorl	%r11d, %r11d
	addq	%r12, %rax
	adcq	%r11, %rdx
	movq	%rax, %r10
	movq	%rsi, %rax
	movq	%rdx, %r11
	mulq	%r15
	movq	%r11, -64(%rsp)
	movq	%rax, %r12
	movq	-88(%rsp), %rax
	movq	%rdx, %r13
	mulq	%rdi
	addq	%rax, %r12
	movq	-104(%rsp), %rax
	adcq	%rdx, %r13
	mulq	%r8
	addq	%rax, %r12
	movq	%rbx, %rax
	adcq	%rdx, %r13
	mulq	%r9
	addq	%rax, %r12
	movq	-72(%rsp), %rax
	movq	%r10, -72(%rsp)
	adcq	%rdx, %r13
	mulq	%r14
	addq	%r12, %rax
	adcq	%r13, %rdx
	shrdq	$51, %r11, %r10
	xorl	%r11d, %r11d
	addq	%rax, %r10
	movq	%r14, %rax
	adcq	%rdx, %r11
	mulq	%r15
	movq	%rax, %r14
	movq	%rsi, %rax
	movq	%rdx, %r15
	mulq	%rdi
	movq	%r14, %rsi
	movq	%r15, %rdi
	addq	%rax, %rsi
	movq	-88(%rsp), %rax
	adcq	%rdx, %rdi
	mulq	%r8
	movq	%r10, %r8
	addq	%rax, %rsi
	movq	-104(%rsp), %rax
	adcq	%rdx, %rdi
	mulq	%rbx
	addq	%rax, %rsi
	movq	-16(%rsp), %rax
	adcq	%rdx, %rdi
	mulq	%r9
	addq	%rsi, %rax
	adcq	%rdi, %rdx
	shrdq	$51, %r11, %r8
	xorl	%edi, %edi
	movq	%r8, %rbx
	movq	%rdi, %rsi
	addq	%rax, %rbx
	adcq	%rdx, %rsi
	movq	%rbx, %rax
	andq	%rcx, %r10
	shrdq	$51, %rsi, %rax
	movq	%r10, 104(%rbp)
	leaq	(%rax,%rax,8), %rdx
	leaq	(%rax,%rdx,2), %rdx
	movq	-40(%rsp), %rax
	andq	%rcx, %rax
	addq	%rax, %rdx
	movq	-56(%rsp), %rax
	movq	%rdx, %rdi
	andq	%rcx, %rdx
	andq	%rcx, %rax
	shrq	$51, %rdi
	movq	%rdx, 80(%rbp)
	addq	%rdi, %rax
	movq	%rax, %rdx
	shrq	$51, %rax
	andq	%rcx, %rdx
	movq	%rdx, 88(%rbp)
	movq	-72(%rsp), %rdx
	andq	%rcx, %rdx
	addq	%rdx, %rax
	movq	%rax, 96(%rbp)
	movq	%rbx, %rax
	andq	%rcx, %rax
	movq	%rax, 112(%rbp)
	popq	%rbx
	.cfi_def_cfa_offset 48
	popq	%rbp
	.cfi_def_cfa_offset 40
	popq	%r12
	.cfi_def_cfa_offset 32
	popq	%r13
	.cfi_def_cfa_offset 24
	popq	%r14
	.cfi_def_cfa_offset 16
	popq	%r15
	.cfi_def_cfa_offset 8
	ret
	.cfi_endproc
.LFE35:
	.size	x25519_ge_p1p1_to_p2, .-x25519_ge_p1p1_to_p2
	.p2align 4
	.globl	x25519_ge_p1p1_to_p3
	.type	x25519_ge_p1p1_to_p3, @function
x25519_ge_p1p1_to_p3:
.LFB36:
	.cfi_startproc
	pushq	%r15
	.cfi_def_cfa_offset 16
	.cfi_offset 15, -16
	movq	%rsi, %r10
	pushq	%r14
	.cfi_def_cfa_offset 24
	.cfi_offset 14, -24
	pushq	%r13
	.cfi_def_cfa_offset 32
	.cfi_offset 13, -32
	pushq	%r12
	.cfi_def_cfa_offset 40
	.cfi_offset 12, -40
	pushq	%rbp
	.cfi_def_cfa_offset 48
	.cfi_offset 6, -48
	movq	%rdi, %rbp
	pushq	%rbx
	.cfi_def_cfa_offset 56
	.cfi_offset 3, -56
	movq	152(%rsi), %rax
	movq	152(%rsi), %rbx
	movq	136(%rsi), %r11
	leaq	(%rax,%rax,8), %rax
	leaq	(%rbx,%rax,2), %rdi
	movq	144(%rsi), %rax
	movq	144(%rsi), %rbx
	movq	128(%rsi), %rsi
	leaq	(%rax,%rax,8), %rax
	leaq	(%rbx,%rax,2), %rcx
	leaq	(%r11,%r11,8), %rax
	leaq	(%r11,%rax,2), %r8
	leaq	(%rsi,%rsi,8), %rax
	leaq	(%rsi,%rax,2), %rbx
	movq	%rbx, %rax
	mulq	32(%r10)
	movq	%rax, %r14
	movq	%rdx, %r15
	movq	%r8, %rax
	mulq	24(%r10)
	addq	%rax, %r14
	movq	120(%r10), %rax
	adcq	%rdx, %r15
	mulq	(%r10)
	addq	%rax, %r14
	movq	%rcx, %rax
	adcq	%rdx, %r15
	mulq	16(%r10)
	addq	%rax, %r14
	movq	%rdi, %rax
	adcq	%rdx, %r15
	mulq	8(%r10)
	addq	%rax, %r14
	movq	8(%r10), %rax
	adcq	%rdx, %r15
	mulq	120(%r10)
	movq	%r14, %r12
	movq	%r15, %r13
	movq	%r12, -104(%rsp)
	movq	%rax, %r14
	movq	%rdx, %r15
	movq	%rsi, %rax
	mulq	(%r10)
	addq	%rax, %r14
	movq	%r8, %rax
	adcq	%rdx, %r15
	mulq	32(%r10)
	movq	%rax, %r8
	movq	%rdx, %r9
	movq	%rcx, %rax
	addq	%r14, %r8
	adcq	%r15, %r9
	mulq	24(%r10)
	addq	%rax, %r8
	movq	%rdi, %rax
	adcq	%rdx, %r9
	mulq	16(%r10)
	addq	%r8, %rax
	adcq	%r9, %rdx
	shrdq	$51, %r13, %r12
	xorl	%r15d, %r15d
	movq	%r12, %r14
	addq	%rax, %r14
	movq	16(%r10), %rax
	adcq	%rdx, %r15
	mulq	120(%r10)
	movq	%rax, %r12
	movq	%rdx, %r13
	movq	%rsi, %rax
	mulq	8(%r10)
	addq	%rax, %r12
	movq	%r11, %rax
	adcq	%rdx, %r13
	mulq	(%r10)
	addq	%rax, %r12
	movq	%rcx, %rax
	movq	%r14, %rcx
	adcq	%rdx, %r13
	mulq	32(%r10)
	movq	%rax, %r8
	movq	%rdx, %r9
	movq	%rdi, %rax
	addq	%r12, %r8
	adcq	%r13, %r9
	mulq	24(%r10)
	addq	%rax, %r8
	movq	24(%r10), %rax
	adcq	%rdx, %r9
	shrdq	$51, %r15, %rcx
	xorl	%edx, %edx
	addq	%rcx, %r8
	adcq	%rdx, %r9
	mulq	120(%r10)
	movq	%rax, %rcx
	movq	%rdx, %rbx
	movq	%rsi, %rax
	mulq	16(%r10)
	addq	%rax, %rcx
	movq	%r11, %rax
	adcq	%rdx, %rbx
	mulq	8(%r10)
	addq	%rax, %rcx
	movq	144(%r10), %rax
	adcq	%rdx, %rbx
	mulq	(%r10)
	movq	%rax, %r12
	movq	%rdx, %r13
	movq	%rdi, %rax
	addq	%rcx, %r12
	adcq	%rbx, %r13
	mulq	32(%r10)
	addq	%rax, %r12
	movq	%r8, %rax
	adcq	%rdx, %r13
	shrdq	$51, %r9, %rax
	xorl	%ebx, %ebx
	addq	%rax, %r12
	movq	32(%r10), %rax
	adcq	%rbx, %r13
	mulq	120(%r10)
	movq	%rax, %rcx
	movq	%rdx, %rbx
	movq	%rsi, %rax
	movq	%r12, %rsi
	mulq	24(%r10)
	addq	%rax, %rcx
	movq	%r11, %rax
	adcq	%rdx, %rbx
	mulq	16(%r10)
	addq	%rax, %rcx
	movq	8(%r10), %rax
	adcq	%rdx, %rbx
	mulq	144(%r10)
	addq	%rax, %rcx
	movq	(%r10), %rax
	adcq	%rdx, %rbx
	mulq	152(%r10)
	addq	%rax, %rcx
	adcq	%rdx, %rbx
	shrdq	$51, %r13, %rsi
	xorl	%edx, %edx
	movq	%rsi, %rax
	movq	-104(%rsp), %rsi
	addq	%rcx, %rax
	movabsq	$2251799813685247, %rcx
	adcq	%rbx, %rdx
	movq	%rax, -88(%rsp)
	andq	%rcx, %rsi
	andq	%rcx, %r14
	shrdq	$51, %rdx, %rax
	andq	%rcx, %r8
	andq	%rcx, %r12
	leaq	(%rax,%rax,8), %rdx
	movq	%r12, 24(%rbp)
	leaq	(%rax,%rdx,2), %rdx
	movq	-88(%rsp), %rax
	addq	%rsi, %rdx
	movq	%rdx, %rsi
	andq	%rcx, %rdx
	andq	%rcx, %rax
	shrq	$51, %rsi
	movq	%rdx, 0(%rbp)
	addq	%rsi, %r14
	movq	%rax, 32(%rbp)
	movq	%r14, %rdx
	shrq	$51, %r14
	addq	%r14, %r8
	andq	%rcx, %rdx
	movq	%r8, 16(%rbp)
	movq	%rdx, 8(%rbp)
	movq	112(%r10), %rax
	movq	112(%r10), %rbx
	movq	88(%r10), %rdi
	leaq	(%rax,%rax,8), %rax
	leaq	(%rbx,%rax,2), %r11
	movq	104(%r10), %rax
	movq	104(%r10), %rbx
	leaq	(%rax,%rax,8), %rax
	leaq	(%rbx,%rax,2), %rsi
	movq	96(%r10), %rbx
	leaq	(%rbx,%rbx,8), %rax
	leaq	(%rbx,%rax,2), %r8
	leaq	(%rdi,%rdi,8), %rax
	leaq	(%rdi,%rax,2), %r9
	movq	%r9, %rax
	mulq	72(%r10)
	movq	%rax, %r14
	movq	%rdx, %r15
	movq	%r8, %rax
	mulq	64(%r10)
	addq	%rax, %r14
	movq	80(%r10), %rax
	adcq	%rdx, %r15
	mulq	40(%r10)
	addq	%rax, %r14
	movq	%rsi, %rax
	adcq	%rdx, %r15
	mulq	56(%r10)
	addq	%rax, %r14
	movq	%r11, %rax
	adcq	%rdx, %r15
	mulq	48(%r10)
	addq	%rax, %r14
	movq	48(%r10), %rax
	adcq	%rdx, %r15
	mulq	80(%r10)
	movq	%r14, %r12
	movq	%r15, %r13
	movq	%r12, -104(%rsp)
	movq	%rax, %r14
	movq	%rdx, %r15
	movq	%rdi, %rax
	mulq	40(%r10)
	addq	%rax, %r14
	movq	%r8, %rax
	adcq	%rdx, %r15
	mulq	72(%r10)
	movq	%rax, %r8
	movq	%rdx, %r9
	movq	%rsi, %rax
	addq	%r14, %r8
	adcq	%r15, %r9
	mulq	64(%r10)
	addq	%rax, %r8
	movq	%r11, %rax
	adcq	%rdx, %r9
	mulq	56(%r10)
	addq	%r8, %rax
	adcq	%r9, %rdx
	shrdq	$51, %r13, %r12
	xorl	%r9d, %r9d
	addq	%r12, %rax
	adcq	%r9, %rdx
	movq	%rax, %r14
	movq	56(%r10), %rax
	movq	%rdx, %r15
	mulq	80(%r10)
	movq	%r14, -88(%rsp)
	movq	%rax, %r8
	movq	%rdx, %r9
	movq	%rdi, %rax
	mulq	48(%r10)
	addq	%rax, %r8
	movq	%rbx, %rax
	adcq	%rdx, %r9
	mulq	40(%r10)
	addq	%rax, %r8
	movq	%rsi, %rax
	adcq	%rdx, %r9
	mulq	72(%r10)
	addq	%rax, %r8
	movq	%r11, %rax
	adcq	%rdx, %r9
	mulq	64(%r10)
	addq	%r8, %rax
	movq	%r14, %r8
	adcq	%r9, %rdx
	shrdq	$51, %r15, %r8
	xorl	%r15d, %r15d
	movq	%r8, %r14
	addq	%rax, %r14
	movq	64(%r10), %rax
	adcq	%rdx, %r15
	mulq	80(%r10)
	movq	%rax, %r12
	movq	%rdx, %r13
	movq	%rdi, %rax
	mulq	56(%r10)
	addq	%rax, %r12
	movq	%rbx, %rax
	adcq	%rdx, %r13
	mulq	48(%r10)
	addq	%rax, %r12
	movq	104(%r10), %rax
	adcq	%rdx, %r13
	mulq	40(%r10)
	movq	%rax, %r8
	movq	%rdx, %r9
	movq	%r11, %rax
	addq	%r12, %r8
	adcq	%r13, %r9
	mulq	72(%r10)
	addq	%rax, %r8
	movq	%r14, %rax
	adcq	%rdx, %r9
	shrdq	$51, %r15, %rax
	xorl	%r13d, %r13d
	addq	%rax, %r8
	movq	72(%r10), %rax
	adcq	%r13, %r9
	mulq	80(%r10)
	movq	%rax, %r12
	movq	%rdx, %r13
	movq	%rdi, %rax
	mulq	64(%r10)
	movq	%r12, %rsi
	movq	%r13, %rdi
	addq	%rax, %rsi
	movq	%rbx, %rax
	movq	%r8, %rbx
	adcq	%rdx, %rdi
	mulq	56(%r10)
	addq	%rax, %rsi
	movq	48(%r10), %rax
	adcq	%rdx, %rdi
	mulq	104(%r10)
	addq	%rax, %rsi
	movq	40(%r10), %rax
	adcq	%rdx, %rdi
	mulq	112(%r10)
	addq	%rsi, %rax
	adcq	%rdi, %rdx
	shrdq	$51, %r9, %rbx
	xorl	%edi, %edi
	addq	%rbx, %rax
	adcq	%rdi, %rdx
	movq	%rax, %r11
	andq	%rcx, %r14
	andq	%rcx, %r8
	shrdq	$51, %rdx, %rax
	leaq	(%rax,%rax,8), %rdx
	leaq	(%rax,%rdx,2), %rsi
	movq	-104(%rsp), %rdx
	movq	%r11, %rax
	andq	%rcx, %rax
	andq	%rcx, %rdx
	addq	%rdx, %rsi
	movq	-88(%rsp), %rdx
	movq	%r8, 64(%rbp)
	movq	%rsi, %rdi
	andq	%rcx, %rsi
	movq	%rax, 72(%rbp)
	shrq	$51, %rdi
	andq	%rcx, %rdx
	movq	%rsi, 40(%rbp)
	addq	%rdi, %rdx
	movq	%rdx, %rsi
	shrq	$51, %rdx
	addq	%rdx, %r14
	andq	%rcx, %rsi
	movq	%rsi, 48(%rbp)
	movq	%r14, 56(%rbp)
	movq	152(%r10), %rax
	movq	152(%r10), %rbx
	movq	128(%r10), %rdi
	leaq	(%rax,%rax,8), %rax
	leaq	(%rbx,%rax,2), %r11
	movq	144(%r10), %rax
	movq	144(%r10), %rbx
	leaq	(%rax,%rax,8), %rax
	leaq	(%rbx,%rax,2), %rsi
	movq	136(%r10), %rbx
	leaq	(%rbx,%rbx,8), %rax
	leaq	(%rbx,%rax,2), %r8
	leaq	(%rdi,%rdi,8), %rax
	leaq	(%rdi,%rax,2), %r9
	movq	%r9, %rax
	mulq	112(%r10)
	movq	%rax, %r14
	movq	%rdx, %r15
	movq	%r8, %rax
	mulq	104(%r10)
	addq	%rax, %r14
	movq	120(%r10), %rax
	adcq	%rdx, %r15
	mulq	80(%r10)
	addq	%rax, %r14
	movq	%rsi, %rax
	adcq	%rdx, %r15
	mulq	96(%r10)
	addq	%rax, %r14
	movq	%r11, %rax
	adcq	%rdx, %r15
	mulq	88(%r10)
	addq	%rax, %r14
	movq	88(%r10), %rax
	adcq	%rdx, %r15
	mulq	120(%r10)
	movq	%r14, %r12
	movq	%r15, %r13
	movq	%r12, -104(%rsp)
	movq	%r13, -96(%rsp)
	movq	%rax, %r14
	movq	%rdx, %r15
	movq	%rdi, %rax
	mulq	80(%r10)
	addq	%rax, %r14
	movq	%r8, %rax
	adcq	%rdx, %r15
	mulq	112(%r10)
	movq	%rax, %r8
	movq	%rdx, %r9
	movq	%rsi, %rax
	addq	%r14, %r8
	adcq	%r15, %r9
	mulq	104(%r10)
	addq	%rax, %r8
	movq	%r11, %rax
	adcq	%rdx, %r9
	mulq	96(%r10)
	addq	%r8, %rax
	adcq	%r9, %rdx
	shrdq	$51, %r13, %r12
	xorl	%r9d, %r9d
	addq	%r12, %rax
	adcq	%r9, %rdx
	movq	%rax, %r14
	movq	96(%r10), %rax
	movq	%rdx, %r15
	mulq	120(%r10)
	movq	%rax, %r8
	movq	%rdx, %r9
	movq	%rdi, %rax
	mulq	88(%r10)
	addq	%rax, %r8
	movq	%rbx, %rax
	adcq	%rdx, %r9
	mulq	80(%r10)
	addq	%rax, %r8
	movq	%rsi, %rax
	adcq	%rdx, %r9
	mulq	112(%r10)
	addq	%rax, %r8
	movq	%r11, %rax
	adcq	%rdx, %r9
	mulq	104(%r10)
	movq	%r14, -88(%rsp)
	movq	%r15, -80(%rsp)
	addq	%r8, %rax
	movq	%r14, %r8
	adcq	%r9, %rdx
	shrdq	$51, %r15, %r8
	xorl	%r15d, %r15d
	movq	%r8, %r14
	addq	%rax, %r14
	movq	104(%r10), %rax
	adcq	%rdx, %r15
	mulq	120(%r10)
	movq	%rax, %r12
	movq	%rdx, %r13
	movq	%rdi, %rax
	mulq	96(%r10)
	addq	%rax, %r12
	movq	%rbx, %rax
	adcq	%rdx, %r13
	mulq	88(%r10)
	addq	%rax, %r12
	movq	144(%r10), %rax
	adcq	%rdx, %r13
	mulq	80(%r10)
	movq	%rax, %r8
	movq	%rdx, %r9
	movq	%r11, %rax
	addq	%r12, %r8
	adcq	%r13, %r9
	mulq	112(%r10)
	addq	%rax, %r8
	movq	%r14, %rax
	adcq	%rdx, %r9
	shrdq	$51, %r15, %rax
	xorl	%r13d, %r13d
	addq	%rax, %r8
	movq	112(%r10), %rax
	adcq	%r13, %r9
	mulq	120(%r10)
	movq	%rax, %r12
	movq	%rdx, %r13
	movq	%rdi, %rax
	mulq	104(%r10)
	movq	%r12, %rsi
	movq	%r13, %rdi
	addq	%rax, %rsi
	movq	%rbx, %rax
	movq	%r8, %rbx
	adcq	%rdx, %rdi
	mulq	96(%r10)
	addq	%rax, %rsi
	movq	88(%r10), %rax
	adcq	%rdx, %rdi
	mulq	144(%r10)
	addq	%rax, %rsi
	movq	80(%r10), %rax
	adcq	%rdx, %rdi
	mulq	152(%r10)
	addq	%rsi, %rax
	adcq	%rdi, %rdx
	shrdq	$51, %r9, %rbx
	xorl	%edi, %edi
	addq	%rbx, %rax
	adcq	%rdi, %rdx
	movq	%rax, %r11
	andq	%rcx, %r14
	andq	%rcx, %r8
	shrdq	$51, %rdx, %rax
	movq	%r8, 104(%rbp)
	leaq	(%rax,%rax,8), %rdx
	leaq	(%rax,%rdx,2), %rsi
	movq	-104(%rsp), %rdx
	movq	%r11, %rax
	andq	%rcx, %rax
	andq	%rcx, %rdx
	movq	%rax, 112(%rbp)
	addq	%rdx, %rsi
	movq	-88(%rsp), %rdx
	movq	%rsi, %rdi
	andq	%rcx, %rsi
	shrq	$51, %rdi
	andq	%rcx, %rdx
	movq	%rsi, 80(%rbp)
	addq	%rdi, %rdx
	movq	%rdx, %rsi
	shrq	$51, %rdx
	addq	%rdx, %r14
	andq	%rcx, %rsi
	movq	%rsi, 88(%rbp)
	movq	%r14, 96(%rbp)
	movq	72(%r10), %rbx
	movq	56(%r10), %r8
	movq	32(%r10), %r14
	leaq	(%rbx,%rbx,8), %rax
	movq	%rbx, -16(%rsp)
	leaq	(%rbx,%rax,2), %rax
	movq	64(%r10), %rbx
	movq	%rax, -72(%rsp)
	leaq	(%rbx,%rbx,8), %rax
	leaq	(%rbx,%rax,2), %rdi
	leaq	(%r8,%r8,8), %rax
	leaq	(%r8,%rax,2), %rsi
	movq	%rdi, -56(%rsp)
	movq	48(%r10), %rdi
	movq	%rsi, -40(%rsp)
	movq	24(%r10), %rsi
	movq	8(%r10), %rax
	movq	40(%r10), %r15
	movq	(%r10), %r9
	movq	16(%r10), %r11
	movq	%rax, -104(%rsp)
	leaq	(%rdi,%rdi,8), %rax
	movq	-104(%rsp), %r10
	leaq	(%rdi,%rax,2), %r13
	movq	%r11, -88(%rsp)
	movq	%r13, %rax
	mulq	%r14
	movq	%rax, %r12
	movq	-40(%rsp), %rax
	movq	%rdx, %r13
	mulq	%rsi
	addq	%rax, %r12
	movq	%r15, %rax
	adcq	%rdx, %r13
	mulq	%r9
	addq	%rax, %r12
	movq	-56(%rsp), %rax
	adcq	%rdx, %r13
	mulq	%r11
	addq	%rax, %r12
	movq	-72(%rsp), %rax
	adcq	%rdx, %r13
	mulq	%r10
	addq	%rax, %r12
	movq	%r10, %rax
	adcq	%rdx, %r13
	mulq	%r15
	movq	%r13, -32(%rsp)
	movq	%rax, %r10
	movq	%rdi, %rax
	movq	%rdx, %r11
	mulq	%r9
	addq	%rax, %r10
	movq	-40(%rsp), %rax
	movq	%r12, -40(%rsp)
	adcq	%rdx, %r11
	mulq	%r14
	addq	%rax, %r10
	movq	-56(%rsp), %rax
	adcq	%rdx, %r11
	mulq	%rsi
	addq	%rax, %r10
	movq	-72(%rsp), %rax
	adcq	%rdx, %r11
	mulq	-88(%rsp)
	addq	%r10, %rax
	adcq	%r11, %rdx
	shrdq	$51, %r13, %r12
	xorl	%r11d, %r11d
	addq	%r12, %rax
	movq	%rax, %r12
	movq	-88(%rsp), %rax
	adcq	%r11, %rdx
	movq	%rdx, %r13
	mulq	%r15
	movq	%r13, -48(%rsp)
	movq	%rax, %r10
	movq	-104(%rsp), %rax
	movq	%rdx, %r11
	mulq	%rdi
	addq	%rax, %r10
	movq	%r8, %rax
	adcq	%rdx, %r11
	mulq	%r9
	addq	%rax, %r10
	movq	-56(%rsp), %rax
	movq	%r12, -56(%rsp)
	adcq	%rdx, %r11
	mulq	%r14
	addq	%rax, %r10
	movq	-72(%rsp), %rax
	adcq	%rdx, %r11
	mulq	%rsi
	addq	%r10, %rax
	adcq	%r11, %rdx
	movq	%r12, %r11
	shrdq	$51, %r13, %r11
	movq	%r11, %r12
	xorl	%r11d, %r11d
	addq	%r12, %rax
	adcq	%r11, %rdx
	movq	%rax, %r10
	movq	%rsi, %rax
	movq	%rdx, %r11
	mulq	%r15
	movq	%r11, -64(%rsp)
	movq	%rax, %r12
	movq	-88(%rsp), %rax
	movq	%rdx, %r13
	mulq	%rdi
	addq	%rax, %r12
	movq	-104(%rsp), %rax
	adcq	%rdx, %r13
	mulq	%r8
	addq	%rax, %r12
	movq	%rbx, %rax
	adcq	%rdx, %r13
	mulq	%r9
	addq	%rax, %r12
	movq	-72(%rsp), %rax
	movq	%r10, -72(%rsp)
	adcq	%rdx, %r13
	mulq	%r14
	addq	%r12, %rax
	adcq	%r13, %rdx
	shrdq	$51, %r11, %r10
	xorl	%r11d, %r11d
	addq	%rax, %r10
	movq	%r14, %rax
	adcq	%rdx, %r11
	mulq	%r15
	movq	%rax, %r14
	movq	%rsi, %rax
	movq	%rdx, %r15
	mulq	%rdi
	movq	%r14, %rsi
	movq	%r15, %rdi
	addq	%rax, %rsi
	movq	-88(%rsp), %rax
	adcq	%rdx, %rdi
	mulq	%r8
	movq	%r10, %r8
	addq	%rax, %rsi
	movq	-104(%rsp), %rax
	adcq	%rdx, %rdi
	mulq	%rbx
	addq	%rax, %rsi
	movq	-16(%rsp), %rax
	adcq	%rdx, %rdi
	mulq	%r9
	addq	%rsi, %rax
	adcq	%rdi, %rdx
	shrdq	$51, %r11, %r8
	xorl	%edi, %edi
	movq	%r8, %rbx
	movq	%rdi, %rsi
	addq	%rax, %rbx
	adcq	%rdx, %rsi
	movq	%rbx, %rax
	andq	%rcx, %r10
	shrdq	$51, %rsi, %rax
	leaq	(%rax,%rax,8), %rdx
	leaq	(%rax,%rdx,2), %rdx
	movq	-40(%rsp), %rax
	andq	%rcx, %rax
	addq	%rax, %rdx
	movq	-56(%rsp), %rax
	movq	%r10, 144(%rbp)
	movq	%rdx, %rdi
	andq	%rcx, %rdx
	andq	%rcx, %rax
	shrq	$51, %rdi
	movq	%rdx, 120(%rbp)
	addq	%rdi, %rax
	movq	%rax, %rdx
	shrq	$51, %rax
	andq	%rcx, %rdx
	movq	%rdx, 128(%rbp)
	movq	-72(%rsp), %rdx
	andq	%rcx, %rdx
	addq	%rdx, %rax
	movq	%rax, 136(%rbp)
	movq	%rbx, %rax
	andq	%rcx, %rax
	movq	%rax, 152(%rbp)
	popq	%rbx
	.cfi_def_cfa_offset 48
	popq	%rbp
	.cfi_def_cfa_offset 40
	popq	%r12
	.cfi_def_cfa_offset 32
	popq	%r13
	.cfi_def_cfa_offset 24
	popq	%r14
	.cfi_def_cfa_offset 16
	popq	%r15
	.cfi_def_cfa_offset 8
	ret
	.cfi_endproc
.LFE36:
	.size	x25519_ge_p1p1_to_p3, .-x25519_ge_p1p1_to_p3
	.p2align 4
	.globl	CRYPTO_memcmp
	.type	CRYPTO_memcmp, @function
CRYPTO_memcmp:
.LFB46:
	.cfi_startproc
	movq	%rdi, %rcx
	movq	%rdx, %rdi
	testq	%rdx, %rdx
	je	.L176
	leaq	-1(%rdx), %rax
	cmpq	$14, %rax
	jbe	.L177
	andq	$-16, %rdx
	xorl	%eax, %eax
	pxor	%xmm1, %xmm1
	.p2align 4,,10
	.p2align 3
.L172:
	movdqu	(%rcx,%rax), %xmm0
	movdqu	(%rsi,%rax), %xmm3
	addq	$16, %rax
	pxor	%xmm3, %xmm0
	por	%xmm0, %xmm1
	cmpq	%rax, %rdx
	jne	.L172
	movdqa	%xmm1, %xmm0
	movq	%rdi, %r8
	psrldq	$8, %xmm0
	andq	$-16, %r8
	por	%xmm1, %xmm0
	movdqa	%xmm0, %xmm2
	psrldq	$4, %xmm2
	por	%xmm2, %xmm0
	movdqa	%xmm0, %xmm2
	psrldq	$2, %xmm2
	por	%xmm2, %xmm0
	movdqa	%xmm0, %xmm2
	psrldq	$1, %xmm2
	por	%xmm2, %xmm0
	movd	%xmm0, %eax
	movdqa	%xmm1, %xmm0
	psrldq	$8, %xmm1
	por	%xmm0, %xmm1
	testb	$15, %dil
	je	.L173
.L171:
	movq	%rdi, %r9
	subq	%r8, %r9
	leaq	-1(%r9), %rdx
	cmpq	$6, %rdx
	jbe	.L174
	movq	(%rcx,%r8), %xmm0
	movq	(%rsi,%r8), %xmm2
	pxor	%xmm2, %xmm0
	por	%xmm1, %xmm0
	movq	%xmm0, %rdx
	movq	%rdx, %r10
	movzbl	%dh, %eax
	orl	%edx, %eax
	shrq	$16, %r10
	orl	%r10d, %eax
	movq	%rdx, %r10
	shrq	$24, %r10
	orl	%r10d, %eax
	movq	%rdx, %r10
	shrq	$32, %r10
	orl	%r10d, %eax
	movq	%rdx, %r10
	shrq	$40, %r10
	orl	%r10d, %eax
	movq	%rdx, %r10
	shrq	$56, %rdx
	shrq	$48, %r10
	orl	%r10d, %eax
	orl	%edx, %eax
	movq	%r9, %rdx
	andq	$-8, %rdx
	addq	%rdx, %r8
	andl	$7, %r9d
	je	.L173
.L174:
	movzbl	(%rcx,%r8), %edx
	xorb	(%rsi,%r8), %dl
	orl	%edx, %eax
	leaq	1(%r8), %rdx
	cmpq	%rdi, %rdx
	jnb	.L173
	movzbl	1(%rsi,%r8), %edx
	xorb	1(%rcx,%r8), %dl
	orl	%edx, %eax
	leaq	2(%r8), %rdx
	cmpq	%rdi, %rdx
	jnb	.L173
	movzbl	2(%rcx,%r8), %edx
	xorb	2(%rsi,%r8), %dl
	orl	%edx, %eax
	leaq	3(%r8), %rdx
	cmpq	%rdi, %rdx
	jnb	.L173
	movzbl	3(%rcx,%r8), %edx
	xorb	3(%rsi,%r8), %dl
	orl	%edx, %eax
	leaq	4(%r8), %rdx
	cmpq	%rdi, %rdx
	jnb	.L173
	movzbl	4(%rcx,%r8), %edx
	xorb	4(%rsi,%r8), %dl
	orl	%edx, %eax
	leaq	5(%r8), %rdx
	cmpq	%rdi, %rdx
	jnb	.L173
	movzbl	5(%rcx,%r8), %edx
	xorb	5(%rsi,%r8), %dl
	orl	%edx, %eax
	leaq	6(%r8), %rdx
	cmpq	%rdi, %rdx
	jnb	.L173
	movzbl	6(%rcx,%r8), %edx
	xorb	6(%rsi,%r8), %dl
	orl	%edx, %eax
.L173:
	movzbl	%al, %eax
	ret
	.p2align 4,,10
	.p2align 3
.L176:
	xorl	%eax, %eax
	ret
.L177:
	pxor	%xmm1, %xmm1
	xorl	%r8d, %r8d
	xorl	%eax, %eax
	jmp	.L171
	.cfi_endproc
.LFE46:
	.size	CRYPTO_memcmp, .-CRYPTO_memcmp
	.p2align 4
	.globl	SHA512_Update
	.type	SHA512_Update, @function
SHA512_Update:
.LFB48:
	.cfi_startproc
	testq	%rdx, %rdx
	je	.L226
	pushq	%r14
	.cfi_def_cfa_offset 16
	.cfi_offset 14, -16
	leaq	0(,%rdx,8), %rax
	pushq	%r13
	.cfi_def_cfa_offset 24
	.cfi_offset 13, -24
	leaq	80(%rdi), %r13
	pushq	%rbp
	.cfi_def_cfa_offset 32
	.cfi_offset 6, -32
	movq	%rdx, %rbp
	pushq	%rbx
	.cfi_def_cfa_offset 40
	.cfi_offset 3, -40
	movq	%rdi, %rbx
	subq	$24, %rsp
	.cfi_def_cfa_offset 64
	movq	72(%rdi), %rcx
	addq	64(%rdi), %rax
	movq	%rax, 64(%rdi)
	movl	208(%rdi), %eax
	adcq	$0, %rcx
	shrq	$61, %rdx
	addq	%rcx, %rdx
	movq	%rdx, 72(%rdi)
	testl	%eax, %eax
	je	.L230
	movl	$128, %ecx
	leaq	0(%r13,%rax), %r8
	subq	%rax, %rcx
	cmpq	%rcx, %rbp
	jb	.L231
	leaq	-128(%rax,%rbp), %r14
	leaq	(%rsi,%rcx), %rbp
	testq	%rcx, %rcx
	jne	.L232
	movl	$0, 208(%rdi)
	movl	$1, %edx
	movq	%r13, %rsi
	call	sha512_block_data_order
	cmpq	$127, %r14
	jbe	.L229
.L206:
	movq	%rbp, %rsi
	movq	%r14, %rbp
	.p2align 4,,10
	.p2align 3
.L193:
	movq	%rbp, %rdx
	movq	%rbx, %rdi
	movq	%rsi, 8(%rsp)
	movq	%rbp, %r14
	shrq	$7, %rdx
	andq	$-128, %rbp
	andl	$127, %r14d
	call	sha512_block_data_order
	movq	8(%rsp), %rsi
	addq	%rsi, %rbp
	jmp	.L200
	.p2align 4,,10
	.p2align 3
.L230:
	cmpq	$127, %rbp
	ja	.L193
.L192:
	movl	%ebp, %ecx
	cmpl	$8, %ebp
	jb	.L233
	movq	(%rsi), %rax
	leaq	8(%r13), %rdi
	movq	%r13, %rcx
	andq	$-8, %rdi
	movq	%rax, 80(%rbx)
	movl	%ebp, %eax
	subq	%rdi, %rcx
	movq	-8(%rsi,%rax), %rdx
	subq	%rcx, %rsi
	addl	%ebp, %ecx
	shrl	$3, %ecx
	movq	%rdx, -8(%r13,%rax)
	rep movsq
.L203:
	movl	%ebp, 208(%rbx)
.L213:
	addq	$24, %rsp
	.cfi_def_cfa_offset 40
	movl	$1, %eax
	popq	%rbx
	.cfi_def_cfa_offset 32
	popq	%rbp
	.cfi_def_cfa_offset 24
	popq	%r13
	.cfi_def_cfa_offset 16
	popq	%r14
	.cfi_def_cfa_offset 8
	ret
	.p2align 4,,10
	.p2align 3
.L226:
	.cfi_restore 3
	.cfi_restore 6
	.cfi_restore 13
	.cfi_restore 14
	movl	$1, %eax
	ret
	.p2align 4,,10
	.p2align 3
.L232:
	.cfi_def_cfa_offset 64
	.cfi_offset 3, -40
	.cfi_offset 6, -32
	.cfi_offset 13, -24
	.cfi_offset 14, -16
	cmpq	$8, %rcx
	jnb	.L196
	testb	$4, %cl
	jne	.L234
	testq	%rcx, %rcx
	jne	.L235
.L197:
	movl	$0, 208(%rbx)
	movl	$1, %edx
	movq	%r13, %rsi
	movq	%rbx, %rdi
	call	sha512_block_data_order
	cmpq	$127, %r14
	ja	.L206
.L200:
	testq	%r14, %r14
	je	.L213
	.p2align 4,,10
	.p2align 3
.L229:
	movq	%rbp, %rsi
	movq	%r14, %rbp
	jmp	.L192
	.p2align 4,,10
	.p2align 3
.L233:
	testb	$4, %bpl
	jne	.L236
	testl	%ecx, %ecx
	je	.L203
	movzbl	(%rsi), %eax
	movb	%al, 80(%rbx)
	testb	$2, %cl
	je	.L203
	movzwl	-2(%rsi,%rcx), %eax
	movw	%ax, -2(%r13,%rcx)
	jmp	.L203
	.p2align 4,,10
	.p2align 3
.L231:
	movq	%rbp, %rdx
	movq	%r8, %rdi
	call	memcpy
	addl	%ebp, 208(%rbx)
	jmp	.L213
	.p2align 4,,10
	.p2align 3
.L196:
	movq	(%rsi), %rax
	leaq	8(%r8), %rdi
	andq	$-8, %rdi
	movq	%rax, (%r8)
	movq	-8(%rsi,%rcx), %rax
	movq	%rax, -8(%r8,%rcx)
	movq	%r8, %rax
	subq	%rdi, %rax
	addq	%rax, %rcx
	subq	%rax, %rsi
	shrq	$3, %rcx
	rep movsq
	jmp	.L197
	.p2align 4,,10
	.p2align 3
.L235:
	movzbl	(%rsi), %eax
	movb	%al, (%r8)
	testb	$2, %cl
	je	.L197
	movzwl	-2(%rsi,%rcx), %eax
	movw	%ax, -2(%r8,%rcx)
	jmp	.L197
.L236:
	movl	(%rsi), %eax
	movl	%eax, 80(%rbx)
	movl	-4(%rsi,%rcx), %eax
	movl	%eax, -4(%r13,%rcx)
	jmp	.L203
.L234:
	movl	(%rsi), %eax
	movl	%eax, (%r8)
	movl	-4(%rsi,%rcx), %eax
	movl	%eax, -4(%r8,%rcx)
	jmp	.L197
	.cfi_endproc
.LFE48:
	.size	SHA512_Update, .-SHA512_Update
	.p2align 4
	.globl	SHA512
	.type	SHA512, @function
SHA512:
.LFB50:
	.cfi_startproc
	pushq	%r13
	.cfi_def_cfa_offset 16
	.cfi_offset 13, -16
	pushq	%r12
	.cfi_def_cfa_offset 24
	.cfi_offset 12, -24
	movq	%rdx, %r12
	pushq	%rbp
	.cfi_def_cfa_offset 32
	.cfi_offset 6, -32
	pushq	%rbx
	.cfi_def_cfa_offset 40
	.cfi_offset 3, -40
	subq	$232, %rsp
	.cfi_def_cfa_offset 272
	movdqa	.LC0(%rip), %xmm0
	movq	.LC4(%rip), %rax
	movq	%rsp, %r13
	movaps	%xmm0, (%rsp)
	movdqa	.LC1(%rip), %xmm0
	movq	%rax, 208(%rsp)
	movaps	%xmm0, 16(%rsp)
	movdqa	.LC2(%rip), %xmm0
	movaps	%xmm0, 32(%rsp)
	movdqa	.LC3(%rip), %xmm0
	movaps	%xmm0, 48(%rsp)
	pxor	%xmm0, %xmm0
	movaps	%xmm0, 64(%rsp)
	testq	%rsi, %rsi
	je	.L238
	movq	%rsi, %rax
	movq	%rdi, %rbp
	movq	%rsi, %rbx
	movq	%rsp, %r13
	shrq	$61, %rax
	movq	%rax, 72(%rsp)
	leaq	0(,%rsi,8), %rax
	movq	%rax, 64(%rsp)
	cmpq	$127, %rsi
	ja	.L320
.L239:
	leaq	80(%rsp), %r8
	movl	%ebx, %edx
	movq	%r8, %rdi
	cmpl	$8, %ebx
	jnb	.L321
	xorl	%eax, %eax
	testb	$4, %dl
	jne	.L322
.L241:
	testb	$2, %dl
	jne	.L323
.L242:
	andl	$1, %edx
	jne	.L324
.L243:
	movl	%ebx, 208(%rsp)
	movl	212(%rsp), %ebp
	movb	$-128, 80(%rsp,%rbx)
	addq	$1, %rbx
	cmpq	$112, %rbx
	jbe	.L244
	movl	$128, %eax
	subq	%rbx, %rax
	jne	.L325
.L245:
	movq	%r8, %rsi
	movl	$1, %edx
	movq	%r13, %rdi
	call	sha512_block_data_order
	leaq	80(%rsp), %r8
	movl	$112, %eax
	movq	%r8, %rbx
.L252:
	movl	%eax, %ecx
	cmpl	$8, %eax
	jb	.L326
	leaq	8(%rbx), %rdi
	movl	%eax, %edx
	movq	$0, (%rbx)
	movq	$0, -8(%rbx,%rdx)
	andq	$-8, %rdi
	subq	%rdi, %rbx
	leal	(%rax,%rbx), %ecx
	xorl	%eax, %eax
	shrl	$3, %ecx
	rep stosq
.L253:
	movq	72(%rsp), %rax
	movq	64(%rsp), %rdx
	movq	%r8, %rsi
	movq	%r13, %rdi
	bswap	%rdx
	bswap	%rax
	movq	%rdx, %xmm1
	movq	%rax, %xmm0
	punpcklqdq	%xmm1, %xmm0
	movl	$1, %edx
	movaps	%xmm0, 192(%rsp)
	call	sha512_block_data_order
	testq	%r12, %r12
	je	.L259
	shrq	$3, %rbp
	je	.L259
	movq	(%rsp), %rax
	bswap	%rax
	movq	%rax, (%r12)
	cmpq	$1, %rbp
	je	.L259
	movq	8(%rsp), %rax
	bswap	%rax
	movq	%rax, 8(%r12)
	cmpq	$2, %rbp
	je	.L259
	movq	16(%rsp), %rax
	bswap	%rax
	movq	%rax, 16(%r12)
	cmpq	$3, %rbp
	je	.L259
	movq	24(%rsp), %rax
	bswap	%rax
	movq	%rax, 24(%r12)
	cmpq	$4, %rbp
	je	.L259
	movq	32(%rsp), %rax
	bswap	%rax
	movq	%rax, 32(%r12)
	cmpq	$5, %rbp
	je	.L259
	movq	40(%rsp), %rax
	bswap	%rax
	movq	%rax, 40(%r12)
	cmpq	$6, %rbp
	je	.L259
	movq	48(%rsp), %rax
	bswap	%rax
	movq	%rax, 48(%r12)
	cmpq	$7, %rbp
	je	.L259
	movq	56(%rsp), %rax
	bswap	%rax
	movq	%rax, 56(%r12)
.L259:
	xorl	%eax, %eax
	movq	%r13, %rdi
	movl	$27, %ecx
	rep stosq
	addq	$232, %rsp
	.cfi_remember_state
	.cfi_def_cfa_offset 40
	movq	%r12, %rax
	popq	%rbx
	.cfi_def_cfa_offset 32
	popq	%rbp
	.cfi_def_cfa_offset 24
	popq	%r12
	.cfi_def_cfa_offset 16
	popq	%r13
	.cfi_def_cfa_offset 8
	ret
	.p2align 4,,10
	.p2align 3
.L320:
	.cfi_restore_state
	movq	%rsi, %rdx
	movq	%rdi, %rsi
	movq	%r13, %rdi
	shrq	$7, %rdx
	call	sha512_block_data_order
	movq	%rbx, %rax
	andl	$127, %eax
	jne	.L327
.L238:
	movb	$-128, 80(%rsp)
	movl	$64, %ebp
	movl	$111, %eax
	movl	$1, %ebx
	leaq	80(%rsp), %r8
.L261:
	addq	%r8, %rbx
	jmp	.L252
	.p2align 4,,10
	.p2align 3
.L324:
	movzbl	0(%rbp,%rax), %edx
	movb	%dl, (%rdi,%rax)
	jmp	.L243
	.p2align 4,,10
	.p2align 3
.L323:
	movzwl	0(%rbp,%rax), %ecx
	movw	%cx, (%rdi,%rax)
	addq	$2, %rax
	andl	$1, %edx
	je	.L243
	jmp	.L324
	.p2align 4,,10
	.p2align 3
.L322:
	movl	0(%rbp), %eax
	movl	%eax, (%rdi)
	movl	$4, %eax
	testb	$2, %dl
	je	.L242
	jmp	.L323
	.p2align 4,,10
	.p2align 3
.L326:
	testb	$4, %al
	jne	.L328
	testl	%ecx, %ecx
	je	.L253
	movb	$0, (%rbx)
	testb	$2, %cl
	je	.L253
	xorl	%eax, %eax
	movw	%ax, -2(%rbx,%rcx)
	jmp	.L253
	.p2align 4,,10
	.p2align 3
.L325:
	addq	%r8, %rbx
	xorl	%edi, %edi
	cmpl	$8, %eax
	jb	.L329
	leaq	8(%rbx), %rcx
	movl	%eax, %edx
	movq	$0, (%rbx)
	movq	$0, -8(%rbx,%rdx)
	andq	$-8, %rcx
	subq	%rcx, %rbx
	addl	%ebx, %eax
	andl	$-8, %eax
	cmpl	$8, %eax
	jb	.L245
	andl	$-8, %eax
	xorl	%edx, %edx
.L250:
	movl	%edx, %esi
	addl	$8, %edx
	movq	%rdi, (%rcx,%rsi)
	cmpl	%eax, %edx
	jb	.L250
	jmp	.L245
	.p2align 4,,10
	.p2align 3
.L321:
	movl	%ebx, %ecx
	movq	%rbp, %rsi
	xorl	%eax, %eax
	shrl	$3, %ecx
	rep movsq
	movq	%rsi, %rbp
	testb	$4, %dl
	je	.L241
	jmp	.L322
	.p2align 4,,10
	.p2align 3
.L329:
	testb	$4, %al
	jne	.L330
	testl	%eax, %eax
	je	.L245
	movb	$0, (%rbx)
	testb	$2, %al
	je	.L245
	movl	%eax, %eax
	xorl	%edx, %edx
	movw	%dx, -2(%rbx,%rax)
	jmp	.L245
.L327:
	subq	%rax, %rbx
	addq	%rbx, %rbp
	movq	%rax, %rbx
	jmp	.L239
.L328:
	movl	$0, (%rbx)
	movl	$0, -4(%rbx,%rcx)
	jmp	.L253
.L330:
	movl	%eax, %eax
	movl	$0, (%rbx)
	movl	$0, -4(%rbx,%rax)
	jmp	.L245
.L244:
	movl	$112, %eax
	subq	%rbx, %rax
	je	.L253
	jmp	.L261
	.cfi_endproc
.LFE50:
	.size	SHA512, .-SHA512
	.p2align 4
	.globl	x25519_sc_reduce
	.type	x25519_sc_reduce, @function
x25519_sc_reduce:
.LFB80:
	.cfi_startproc
	pushq	%r15
	.cfi_def_cfa_offset 16
	.cfi_offset 15, -16
	movq	%rdi, %rax
	pushq	%r14
	.cfi_def_cfa_offset 24
	.cfi_offset 14, -24
	pushq	%r13
	.cfi_def_cfa_offset 32
	.cfi_offset 13, -32
	pushq	%r12
	.cfi_def_cfa_offset 40
	.cfi_offset 12, -40
	pushq	%rbp
	.cfi_def_cfa_offset 48
	.cfi_offset 6, -48
	pushq	%rbx
	.cfi_def_cfa_offset 56
	.cfi_offset 3, -56
	movzbl	1(%rdi), %edx
	movzbl	2(%rdi), %ecx
	movzbl	(%rdi), %esi
	salq	$8, %rdx
	salq	$16, %rcx
	orq	%rcx, %rdx
	movzbl	7(%rdi), %ecx
	orq	%rsi, %rdx
	andl	$2097151, %edx
	salq	$16, %rcx
	movq	%rdx, -80(%rsp)
	movl	2(%rdi), %edx
	shrq	$5, %rdx
	movq	%rdx, %rsi
	movzbl	6(%rdi), %edx
	andl	$2097151, %esi
	salq	$8, %rdx
	movq	%rsi, -72(%rsp)
	movzbl	21(%rdi), %esi
	orq	%rcx, %rdx
	movzbl	5(%rdi), %ecx
	orq	%rcx, %rdx
	shrq	$2, %rdx
	movq	%rdx, %rbx
	movl	7(%rdi), %edx
	andl	$2097151, %ebx
	shrq	$7, %rdx
	movq	%rbx, -64(%rsp)
	movq	%rdx, %rcx
	movl	10(%rdi), %edx
	andl	$2097151, %ecx
	shrq	$4, %rdx
	movq	%rcx, -56(%rsp)
	movzbl	15(%rdi), %ecx
	andl	$2097151, %edx
	movq	%rdx, -48(%rsp)
	movzbl	14(%rdi), %edx
	salq	$16, %rcx
	salq	$8, %rdx
	orq	%rcx, %rdx
	movzbl	13(%rdi), %ecx
	orq	%rcx, %rdx
	movzbl	23(%rdi), %ecx
	shrq	%rdx
	movq	%rdx, %r8
	movl	15(%rdi), %edx
	salq	$16, %rcx
	andl	$2097151, %r8d
	shrq	$6, %rdx
	movq	%r8, -40(%rsp)
	movq	%rdx, %r9
	movzbl	22(%rdi), %edx
	andl	$2097151, %r9d
	salq	$8, %rdx
	movq	%r9, -32(%rsp)
	orq	%rcx, %rdx
	orq	%rsi, %rdx
	movq	%rdx, %r11
	movl	23(%rdi), %edx
	andl	$2097151, %r11d
	shrq	$5, %rdx
	movq	%r11, -24(%rsp)
	movq	%rdx, %rbp
	andl	$2097151, %ebp
	movq	%rbp, -16(%rsp)
	movzbl	27(%rdi), %r10d
	movzbl	28(%rdi), %edx
	movzbl	35(%rdi), %ebx
	salq	$8, %r10
	movzbl	44(%rdi), %ecx
	movzbl	42(%rdi), %esi
	salq	$16, %rdx
	salq	$8, %rbx
	movl	28(%rdi), %r12d
	movl	31(%rdi), %ebp
	orq	%rdx, %r10
	movzbl	26(%rdi), %edx
	salq	$16, %rcx
	movl	36(%rdi), %r15d
	movl	52(%rdi), %r9d
	shrq	$7, %r12
	shrq	$4, %rbp
	movl	57(%rax), %r8d
	orq	%rdx, %r10
	movzbl	36(%rdi), %edx
	shrq	$6, %r15
	andl	$2097151, %r12d
	shrq	$2, %r10
	andl	$2097151, %ebp
	andl	$2097151, %r15d
	salq	$16, %rdx
	andl	$2097151, %r10d
	orq	%rdx, %rbx
	movzbl	34(%rdi), %edx
	orq	%rdx, %rbx
	movzbl	43(%rdi), %edx
	shrq	%rbx
	salq	$8, %rdx
	andl	$2097151, %ebx
	orq	%rcx, %rdx
	movzbl	49(%rdi), %ecx
	orq	%rsi, %rdx
	movl	49(%rdi), %esi
	movq	%rdx, %r11
	movl	44(%rdi), %edx
	salq	$16, %rcx
	shrq	$7, %rsi
	andl	$2097151, %r11d
	shrq	$5, %rdx
	movq	%rdx, %r13
	movzbl	48(%rdi), %edx
	andl	$2097151, %r13d
	salq	$8, %rdx
	movq	%r13, -8(%rsp)
	orq	%rdx, %rcx
	movzbl	47(%rdi), %edx
	movzbl	56(%rdi), %edi
	orq	%rdx, %rcx
	movzbl	57(%rax), %edx
	shrq	$2, %rcx
	andl	$2097151, %ecx
	andl	$2097151, %esi
	salq	$8, %rdi
	salq	$16, %rdx
	shrq	$6, %r8
	orq	%rdi, %rdx
	movzbl	55(%rax), %edi
	andl	$2097151, %r8d
	shrq	$4, %r9
	andl	$2097151, %r9d
	orq	%rdi, %rdx
	movl	60(%rax), %edi
	shrq	%rdx
	shrq	$3, %rdi
	andl	$2097151, %edx
	imulq	$666643, %rdi, %r14
	imulq	$470296, %rdi, %r13
	addq	%r12, %r14
	imulq	$654183, %rdi, %r12
	addq	%rbp, %r13
	imulq	$-997805, %rdi, %rbp
	addq	%rbx, %r12
	movzbl	41(%rax), %ebx
	addq	%r15, %rbp
	movzbl	40(%rax), %r15d
	salq	$16, %rbx
	salq	$8, %r15
	orq	%r15, %rbx
	movzbl	39(%rax), %r15d
	orq	%r15, %rbx
	imulq	$136657, %rdi, %r15
	imulq	$-683901, %rdi, %rdi
	shrq	$3, %rbx
	addq	%rbx, %r15
	imulq	$470296, %r8, %rbx
	addq	%r11, %rdi
	imulq	$666643, %r8, %r11
	addq	%r10, %r11
	addq	%r14, %rbx
	movq	-16(%rsp), %r14
	imulq	$654183, %r8, %r10
	addq	%r10, %r13
	imulq	$-997805, %r8, %r10
	addq	%r10, %r12
	imulq	$136657, %r8, %r10
	imulq	$-683901, %r8, %r8
	addq	%rbp, %r10
	imulq	$666643, %rdx, %rbp
	addq	%r15, %r8
	movq	-24(%rsp), %r15
	addq	%r14, %rbp
	imulq	$470296, %rdx, %r14
	addq	%r11, %r14
	imulq	$654183, %rdx, %r11
	addq	%r11, %rbx
	imulq	$-997805, %rdx, %r11
	addq	%r11, %r13
	imulq	$136657, %rdx, %r11
	imulq	$-683901, %rdx, %rdx
	addq	%r12, %r11
	imulq	$666643, %r9, %r12
	addq	%r10, %rdx
	imulq	$470296, %r9, %r10
	addq	%r15, %r12
	addq	%r10, %rbp
	imulq	$654183, %r9, %r10
	addq	%r10, %r14
	imulq	$-997805, %r9, %r10
	addq	%r10, %rbx
	imulq	$136657, %r9, %r10
	imulq	$-683901, %r9, %r9
	addq	%r10, %r13
	movzbl	20(%rax), %r10d
	addq	%r11, %r9
	movzbl	19(%rax), %r11d
	salq	$16, %r10
	salq	$8, %r11
	orq	%r11, %r10
	movzbl	18(%rax), %r11d
	movq	-32(%rsp), %r15
	orq	%r11, %r10
	imulq	$666643, %rsi, %r11
	shrq	$3, %r10
	addq	%r11, %r10
	imulq	$470296, %rsi, %r11
	addq	%r11, %r12
	imulq	$654183, %rsi, %r11
	addq	%r11, %rbp
	imulq	$-997805, %rsi, %r11
	addq	%r11, %r14
	imulq	$136657, %rsi, %r11
	imulq	$-683901, %rsi, %rsi
	addq	%rbx, %r11
	imulq	$666643, %rcx, %rbx
	addq	%r13, %rsi
	imulq	$470296, %rcx, %r13
	addq	%r15, %rbx
	movq	-8(%rsp), %r15
	addq	%r10, %r13
	imulq	$654183, %rcx, %r10
	addq	%r10, %r12
	imulq	$-997805, %rcx, %r10
	addq	%r10, %rbp
	imulq	$136657, %rcx, %r10
	imulq	$-683901, %rcx, %rcx
	addq	%r10, %r14
	addq	%r11, %rcx
	leaq	1048576(%rbx), %r11
	movq	%r11, %r10
	sarq	$21, %r10
	addq	%r13, %r10
	andq	$-2097152, %r11
	leaq	1048576(%r12), %r13
	subq	%r11, %rbx
	movq	%r13, %r11
	andq	$-2097152, %r13
	subq	%r13, %r12
	sarq	$21, %r11
	leaq	1048576(%r14), %r13
	addq	%rbp, %r11
	movq	%r13, %rbp
	andq	$-2097152, %r13
	sarq	$21, %rbp
	subq	%r13, %r14
	addq	%rcx, %rbp
	leaq	1048576(%rsi), %rcx
	movq	%rcx, %r13
	andq	$-2097152, %rcx
	sarq	$21, %r13
	subq	%rcx, %rsi
	addq	%r13, %r9
	leaq	1048576(%rdx), %r13
	movq	%r13, %rcx
	andq	$-2097152, %r13
	subq	%r13, %rdx
	sarq	$21, %rcx
	leaq	1048576(%rdi), %r13
	addq	%r8, %rcx
	movq	%r13, %r8
	andq	$-2097152, %r13
	sarq	$21, %r8
	subq	%r13, %rdi
	addq	%r15, %r8
	leaq	1048576(%r10), %r15
	movq	%r15, %r13
	andq	$-2097152, %r15
	sarq	$21, %r13
	subq	%r15, %r10
	addq	%r12, %r13
	leaq	1048576(%r11), %r12
	movq	%r12, %r15
	andq	$-2097152, %r12
	subq	%r12, %r11
	sarq	$21, %r15
	leaq	1048576(%rbp), %r12
	addq	%r15, %r14
	movq	%r12, %r15
	sarq	$21, %r15
	addq	%r15, %rsi
	andq	$-2097152, %r12
	subq	%r12, %rbp
	leaq	1048576(%r9), %r12
	movq	%r12, %r15
	andq	$-2097152, %r12
	sarq	$21, %r15
	subq	%r12, %r9
	addq	%r15, %rdx
	leaq	1048576(%rcx), %r15
	movq	%r15, %r12
	andq	$-2097152, %r15
	subq	%r15, %rcx
	sarq	$21, %r12
	imulq	$666643, %r8, %r15
	addq	%rdi, %r12
	movq	-40(%rsp), %rdi
	addq	%rdi, %r15
	imulq	$470296, %r8, %rdi
	addq	%rdi, %rbx
	imulq	$654183, %r8, %rdi
	addq	%rdi, %r10
	imulq	$-997805, %r8, %rdi
	addq	%rdi, %r13
	imulq	$136657, %r8, %rdi
	imulq	$-683901, %r8, %r8
	addq	%r11, %rdi
	imulq	$666643, %r12, %r11
	addq	%r14, %r8
	movq	-48(%rsp), %r14
	addq	%r14, %r11
	imulq	$470296, %r12, %r14
	addq	%r15, %r14
	imulq	$654183, %r12, %r15
	addq	%r15, %rbx
	imulq	$-997805, %r12, %r15
	addq	%r10, %r15
	imulq	$136657, %r12, %r10
	addq	%r13, %r10
	imulq	$-683901, %r12, %r12
	imulq	$666643, %rcx, %r13
	addq	%rdi, %r12
	movq	-56(%rsp), %rdi
	addq	%rdi, %r13
	imulq	$470296, %rcx, %rdi
	addq	%rdi, %r11
	imulq	$654183, %rcx, %rdi
	addq	%rdi, %r14
	imulq	$-997805, %rcx, %rdi
	addq	%rdi, %rbx
	imulq	$136657, %rcx, %rdi
	imulq	$-683901, %rcx, %rcx
	addq	%r15, %rdi
	imulq	$666643, %rdx, %r15
	addq	%r10, %rcx
	movq	-64(%rsp), %r10
	addq	%r10, %r15
	imulq	$470296, %rdx, %r10
	addq	%r10, %r13
	imulq	$654183, %rdx, %r10
	addq	%r10, %r11
	imulq	$-997805, %rdx, %r10
	addq	%r10, %r14
	imulq	$136657, %rdx, %r10
	imulq	$-683901, %rdx, %rdx
	addq	%rbx, %r10
	imulq	$666643, %r9, %rbx
	addq	%rdi, %rdx
	movq	-72(%rsp), %rdi
	addq	%rdi, %rbx
	imulq	$470296, %r9, %rdi
	addq	%rdi, %r15
	imulq	$654183, %r9, %rdi
	addq	%rdi, %r13
	imulq	$-997805, %r9, %rdi
	addq	%rdi, %r11
	imulq	$136657, %r9, %rdi
	imulq	$-683901, %r9, %r9
	addq	%r14, %rdi
	movq	-80(%rsp), %r14
	addq	%r10, %r9
	imulq	$666643, %rsi, %r10
	addq	%r14, %r10
	imulq	$470296, %rsi, %r14
	addq	%r14, %rbx
	imulq	$654183, %rsi, %r14
	addq	%r15, %r14
	imulq	$-997805, %rsi, %r15
	addq	%r15, %r13
	imulq	$136657, %rsi, %r15
	imulq	$-683901, %rsi, %rsi
	addq	%r15, %r11
	leaq	1048576(%r10), %r15
	addq	%rdi, %rsi
	movq	%r15, %rdi
	andq	$-2097152, %r15
	sarq	$21, %rdi
	addq	%rbx, %rdi
	movq	%r10, %rbx
	leaq	1048576(%r14), %r10
	subq	%r15, %rbx
	movq	%r10, %r15
	andq	$-2097152, %r10
	subq	%r10, %r14
	sarq	$21, %r15
	leaq	1048576(%r11), %r10
	addq	%r15, %r13
	movq	%r10, %r15
	andq	$-2097152, %r10
	subq	%r10, %r11
	sarq	$21, %r15
	leaq	1048576(%r9), %r10
	addq	%rsi, %r15
	movq	%r10, %rsi
	sarq	$21, %rsi
	addq	%rdx, %rsi
	andq	$-2097152, %r10
	subq	%r10, %r9
	leaq	1048576(%rcx), %r10
	movq	%r10, %rdx
	andq	$-2097152, %r10
	sarq	$21, %rdx
	subq	%r10, %rcx
	addq	%r12, %rdx
	leaq	1048576(%r8), %r12
	movq	%r12, %r10
	andq	$-2097152, %r12
	subq	%r12, %r8
	sarq	$21, %r10
	leaq	1048576(%rdi), %r12
	addq	%rbp, %r10
	movq	%r12, %rbp
	sarq	$21, %rbp
	addq	%r14, %rbp
	movq	%r12, %r14
	andq	$-2097152, %r14
	subq	%r14, %rdi
	movq	%rdi, %r12
	leaq	1048576(%r13), %rdi
	movq	%rdi, %r14
	andq	$-2097152, %rdi
	subq	%rdi, %r13
	sarq	$21, %r14
	leaq	1048576(%r15), %rdi
	addq	%r11, %r14
	movq	%rdi, %r11
	andq	$-2097152, %rdi
	subq	%rdi, %r15
	sarq	$21, %r11
	leaq	1048576(%rsi), %rdi
	addq	%r11, %r9
	movq	%rdi, %r11
	andq	$-2097152, %rdi
	subq	%rdi, %rsi
	sarq	$21, %r11
	leaq	1048576(%rdx), %rdi
	addq	%r11, %rcx
	movq	%rdi, %r11
	andq	$-2097152, %rdi
	sarq	$21, %r11
	subq	%rdi, %rdx
	addq	%r11, %r8
	leaq	1048576(%r10), %r11
	movq	%r11, %rdi
	andq	$-2097152, %r11
	sarq	$21, %rdi
	subq	%r11, %r10
	imulq	$666643, %rdi, %r11
	addq	%rbx, %r11
	imulq	$470296, %rdi, %rbx
	addq	%r12, %rbx
	imulq	$654183, %rdi, %r12
	addq	%r12, %rbp
	imulq	$-997805, %rdi, %r12
	addq	%r13, %r12
	imulq	$136657, %rdi, %r13
	imulq	$-683901, %rdi, %rdi
	addq	%r14, %r13
	movq	%r11, %r14
	sarq	$21, %r14
	addq	%r15, %rdi
	addq	%rbx, %r14
	movq	%r11, %rbx
	movq	%r14, %r11
	andl	$2097151, %r14d
	andl	$2097151, %ebx
	sarq	$21, %r11
	addq	%rbp, %r11
	movq	%r14, %rbp
	movq	%r11, %r14
	andl	$2097151, %r11d
	sarq	$21, %r14
	addq	%r12, %r14
	movq	%r11, %r12
	movq	%r14, %r11
	andl	$2097151, %r14d
	sarq	$21, %r11
	addq	%r13, %r11
	movq	%r14, %r13
	movq	%r11, %r14
	sarq	$21, %r14
	addq	%rdi, %r14
	movq	%r11, %rdi
	movq	%r14, %r11
	andl	$2097151, %edi
	andl	$2097151, %r14d
	sarq	$21, %r11
	addq	%r9, %r11
	movq	%r11, %r15
	sarq	$21, %r15
	addq	%rsi, %r15
	andl	$2097151, %r11d
	movq	%r15, %r9
	andl	$2097151, %r15d
	sarq	$21, %r9
	addq	%rcx, %r9
	movq	%r9, %rcx
	andl	$2097151, %r9d
	sarq	$21, %rcx
	addq	%rdx, %rcx
	movq	%rcx, %rdx
	andl	$2097151, %ecx
	sarq	$21, %rdx
	addq	%r8, %rdx
	movq	%rcx, %r8
	movq	%rdx, %rcx
	andl	$2097151, %edx
	sarq	$21, %rcx
	addq	%r10, %rcx
	movq	%rdx, %r10
	movq	%rcx, %rsi
	andl	$2097151, %ecx
	sarq	$21, %rsi
	imulq	$666643, %rsi, %rdx
	addq	%rbx, %rdx
	imulq	$470296, %rsi, %rbx
	addq	%rbp, %rbx
	imulq	$654183, %rsi, %rbp
	addq	%rbp, %r12
	imulq	$-997805, %rsi, %rbp
	addq	%r13, %rbp
	imulq	$136657, %rsi, %r13
	imulq	$-683901, %rsi, %rsi
	addq	%rdi, %r13
	movq	%rdx, %rdi
	andl	$2097151, %edx
	sarq	$21, %rdi
	addq	%r14, %rsi
	movq	%rdx, %r14
	addq	%rdi, %rbx
	movw	%r14w, (%rax)
	movq	%rbx, %rdx
	sarq	$21, %rdx
	addq	%r12, %rdx
	andl	$2097151, %ebx
	sarq	$16, %r14
	movq	%rdx, %r12
	andl	$2097151, %edx
	sarq	$21, %r12
	addq	%rbp, %r12
	movq	%rdx, %rbp
	movq	%r12, %rdi
	andl	$2097151, %r12d
	sarq	$21, %rdi
	addq	%r13, %rdi
	movq	%rdi, %rdx
	andl	$2097151, %edi
	sarq	$21, %rdx
	addq	%rsi, %rdx
	movq	%rdx, %rsi
	andl	$2097151, %edx
	sarq	$21, %rsi
	addq	%r11, %rsi
	movq	%rdx, %r11
	movq	%rsi, %rdx
	andl	$2097151, %esi
	sarq	$21, %rdx
	addq	%r15, %rdx
	movq	%rdx, %r13
	andl	$2097151, %edx
	sarq	$21, %r13
	addq	%r9, %r13
	movq	%rdx, %r9
	movq	%r13, %rdx
	sarq	$21, %rdx
	addq	%r8, %rdx
	movq	%r13, %r8
	movq	%rdx, %r13
	andl	$2097151, %r8d
	andl	$2097151, %edx
	sarq	$21, %r13
	movw	%r8w, 21(%rax)
	addq	%r10, %r13
	movq	%r13, %r10
	sarq	$21, %r10
	addq	%rcx, %r10
	movq	%r13, %rcx
	movq	%rbx, %r13
	salq	$5, %r13
	andl	$2097151, %ecx
	orl	%r13d, %r14d
	movq	%rbx, %r13
	sarq	$3, %r13
	sarq	$16, %r8
	movb	%r14b, 2(%rax)
	movb	%r13b, 3(%rax)
	movq	%rbx, %r13
	sarq	$19, %rbx
	sarq	$11, %r13
	movb	%r13b, 4(%rax)
	leaq	0(,%rbp,4), %r13
	orl	%r13d, %ebx
	movb	%bl, 5(%rax)
	movq	%rbp, %rbx
	sarq	$14, %rbp
	sarq	$6, %rbx
	movb	%bl, 6(%rax)
	movq	%r12, %rbx
	salq	$7, %rbx
	orl	%ebx, %ebp
	movq	%r12, %rbx
	sarq	%rbx
	movb	%bpl, 7(%rax)
	movb	%bl, 8(%rax)
	movq	%r12, %rbx
	sarq	$17, %r12
	sarq	$9, %rbx
	movb	%bl, 9(%rax)
	movq	%rdi, %rbx
	salq	$4, %rbx
	orl	%ebx, %r12d
	movq	%rdi, %rbx
	sarq	$4, %rbx
	movb	%r12b, 10(%rax)
	movb	%bl, 11(%rax)
	movq	%rdi, %rbx
	sarq	$20, %rdi
	sarq	$12, %rbx
	movb	%bl, 12(%rax)
	leaq	(%r11,%r11), %rbx
	orl	%ebx, %edi
	movb	%dil, 13(%rax)
	movq	%r11, %rdi
	sarq	$15, %r11
	sarq	$7, %rdi
	movb	%dil, 14(%rax)
	movq	%rsi, %rdi
	salq	$6, %rdi
	orl	%edi, %r11d
	movq	%rsi, %rdi
	sarq	$2, %rdi
	movb	%r11b, 15(%rax)
	movb	%dil, 16(%rax)
	movq	%rsi, %rdi
	sarq	$18, %rsi
	sarq	$10, %rdi
	movb	%dil, 17(%rax)
	leaq	0(,%r9,8), %rdi
	orl	%edi, %esi
	movb	%sil, 18(%rax)
	movq	%r9, %rsi
	sarq	$13, %r9
	sarq	$5, %rsi
	movb	%r9b, 20(%rax)
	movb	%sil, 19(%rax)
	movq	%rdx, %rsi
	salq	$5, %rsi
	orl	%esi, %r8d
	movq	%rdx, %rsi
	sarq	$3, %rsi
	movb	%r8b, 23(%rax)
	movb	%sil, 24(%rax)
	movq	%rdx, %rsi
	sarq	$11, %rsi
	sarq	$19, %rdx
	movb	%sil, 25(%rax)
	leaq	0(,%rcx,4), %rsi
	orl	%esi, %edx
	movb	%dl, 26(%rax)
	movq	%rcx, %rdx
	sarq	$14, %rcx
	popq	%rbx
	.cfi_def_cfa_offset 48
	sarq	$6, %rdx
	popq	%rbp
	.cfi_def_cfa_offset 40
	popq	%r12
	.cfi_def_cfa_offset 32
	movb	%dl, 27(%rax)
	movq	%r10, %rdx
	popq	%r13
	.cfi_def_cfa_offset 24
	salq	$7, %rdx
	popq	%r14
	.cfi_def_cfa_offset 16
	popq	%r15
	.cfi_def_cfa_offset 8
	orl	%edx, %ecx
	movq	%r10, %rdx
	sarq	%rdx
	movb	%cl, 28(%rax)
	movb	%dl, 29(%rax)
	movq	%r10, %rdx
	sarq	$17, %r10
	sarq	$9, %rdx
	movb	%r10b, 31(%rax)
	movb	%dl, 30(%rax)
	ret
	.cfi_endproc
.LFE80:
	.size	x25519_sc_reduce, .-x25519_sc_reduce
	.p2align 4
	.globl	x25519_ge_scalarmult_base
	.type	x25519_ge_scalarmult_base, @function
x25519_ge_scalarmult_base:
.LFB83:
	.cfi_startproc
	pushq	%r15
	.cfi_def_cfa_offset 16
	.cfi_offset 15, -16
	pushq	%r14
	.cfi_def_cfa_offset 24
	.cfi_offset 14, -24
	pushq	%r13
	.cfi_def_cfa_offset 32
	.cfi_offset 13, -32
	pushq	%r12
	.cfi_def_cfa_offset 40
	.cfi_offset 12, -40
	pushq	%rbp
	.cfi_def_cfa_offset 48
	.cfi_offset 6, -48
	movq	%rdi, %rbp
	pushq	%rbx
	.cfi_def_cfa_offset 56
	.cfi_offset 3, -56
	subq	$1144, %rsp
	.cfi_def_cfa_offset 1200
	movdqu	(%rsi), %xmm1
	movdqu	(%rsi), %xmm2
	movdqa	.LC6(%rip), %xmm0
	leaq	656(%rsp), %rax
	leaq	719(%rsp), %rdi
	psrlw	$4, %xmm1
	pand	%xmm0, %xmm1
	pand	%xmm0, %xmm2
	movdqa	%xmm2, %xmm3
	punpckhbw	%xmm1, %xmm2
	movaps	%xmm2, 672(%rsp)
	movdqu	16(%rsi), %xmm2
	punpcklbw	%xmm1, %xmm3
	xorl	%esi, %esi
	movaps	%xmm3, 656(%rsp)
	movdqa	%xmm2, %xmm1
	psrlw	$4, %xmm2
	pand	%xmm0, %xmm1
	pand	%xmm2, %xmm0
	movdqa	%xmm1, %xmm2
	punpckhbw	%xmm0, %xmm1
	punpcklbw	%xmm0, %xmm2
	movaps	%xmm1, 704(%rsp)
	movaps	%xmm2, 688(%rsp)
	.p2align 4,,10
	.p2align 3
.L334:
	addb	(%rax), %sil
	addq	$1, %rax
	movl	%esi, %edx
	leal	8(%rdx), %ecx
	movl	%ecx, %esi
	andl	$-16, %ecx
	subl	%ecx, %edx
	sarb	$4, %sil
	movb	%dl, -1(%rax)
	cmpq	%rax, %rdi
	jne	.L334
	addb	%sil, 719(%rsp)
	pxor	%xmm0, %xmm0
	movabsq	$2251799813685247, %r12
	movq	$0, 32(%rbp)
	movq	$1, 40(%rbp)
	movq	$1, 80(%rbp)
	movq	$0, 152(%rbp)
	movq	$1, (%rsp)
	movups	%xmm0, 0(%rbp)
	movups	%xmm0, 16(%rbp)
	movups	%xmm0, 48(%rbp)
	movups	%xmm0, 64(%rbp)
	movups	%xmm0, 88(%rbp)
	movups	%xmm0, 104(%rbp)
	movups	%xmm0, 120(%rbp)
	movups	%xmm0, 136(%rbp)
	.p2align 4,,10
	.p2align 3
.L335:
	movq	(%rsp), %rax
	leaq	720(%rsp), %rdi
	movsbl	656(%rsp,%rax), %edx
	movl	%eax, %esi
	sarl	%esi
	call	table_select
	leaq	720(%rsp), %rdx
	movq	%rbp, %rsi
	leaq	976(%rsp), %rdi
	call	ge_madd
	movq	1128(%rsp), %rbx
	movq	1120(%rsp), %rdi
	movq	$0, 56(%rsp)
	leaq	(%rbx,%rbx,8), %rax
	leaq	(%rbx,%rax,2), %rbx
	leaq	(%rdi,%rdi,8), %rax
	leaq	(%rdi,%rax,2), %rcx
	movq	1112(%rsp), %rdi
	movq	%rbx, %r15
	movq	%rcx, 16(%rsp)
	leaq	(%rdi,%rdi,8), %rax
	leaq	(%rdi,%rax,2), %r11
	movq	1104(%rsp), %rdi
	movq	%r11, 32(%rsp)
	leaq	(%rdi,%rdi,8), %rax
	leaq	(%rdi,%rax,2), %rdi
	movq	%rdi, %rax
	mulq	1008(%rsp)
	movq	%rdi, 640(%rsp)
	movq	%rax, %rsi
	movq	%rdx, %rdi
	movq	%r11, %rax
	mulq	1000(%rsp)
	addq	%rax, %rsi
	movq	1096(%rsp), %rax
	adcq	%rdx, %rdi
	mulq	976(%rsp)
	addq	%rax, %rsi
	movq	%rcx, %rax
	adcq	%rdx, %rdi
	mulq	992(%rsp)
	addq	%rax, %rsi
	movq	%rbx, %rax
	adcq	%rdx, %rdi
	mulq	984(%rsp)
	addq	%rax, %rsi
	movq	984(%rsp), %rax
	adcq	%rdx, %rdi
	mulq	1096(%rsp)
	movq	%rsi, %r13
	movq	%rdi, %r14
	movq	%rax, %rsi
	movq	%rdx, %rdi
	movq	1104(%rsp), %rax
	mulq	976(%rsp)
	addq	%rax, %rsi
	movq	%r11, %rax
	adcq	%rdx, %rdi
	mulq	1008(%rsp)
	addq	%rax, %rsi
	movq	%rcx, %rax
	adcq	%rdx, %rdi
	mulq	1000(%rsp)
	addq	%rax, %rsi
	movq	%rbx, %rax
	adcq	%rdx, %rdi
	mulq	992(%rsp)
	movq	%rax, %r8
	movq	%rdx, %r9
	movq	%r13, %rax
	addq	%rsi, %r8
	adcq	%rdi, %r9
	shrdq	$51, %r14, %rax
	movq	%rax, 48(%rsp)
	movq	992(%rsp), %rax
	addq	48(%rsp), %r8
	adcq	56(%rsp), %r9
	mulq	1096(%rsp)
	movq	%rax, %rsi
	movq	%rdx, %rdi
	movq	984(%rsp), %rax
	mulq	1104(%rsp)
	addq	%rax, %rsi
	movq	1112(%rsp), %rax
	adcq	%rdx, %rdi
	mulq	976(%rsp)
	addq	%rax, %rsi
	movq	%rcx, %rax
	adcq	%rdx, %rdi
	mulq	1008(%rsp)
	addq	%rax, %rsi
	movq	%rbx, %rax
	adcq	%rdx, %rdi
	mulq	1000(%rsp)
	movq	$0, 72(%rsp)
	movq	$0, 88(%rsp)
	movq	%r15, 632(%rsp)
	movq	%rax, %rcx
	movq	%rdx, %rbx
	movq	%r8, %rax
	addq	%rsi, %rcx
	adcq	%rdi, %rbx
	shrdq	$51, %r9, %rax
	movq	%rax, 64(%rsp)
	movq	1000(%rsp), %rax
	addq	64(%rsp), %rcx
	adcq	72(%rsp), %rbx
	mulq	1096(%rsp)
	movq	%rax, %r10
	movq	%rdx, %r11
	movq	992(%rsp), %rax
	mulq	1104(%rsp)
	addq	%rax, %r10
	movq	984(%rsp), %rax
	adcq	%rdx, %r11
	mulq	1112(%rsp)
	addq	%rax, %r10
	movq	1120(%rsp), %rax
	adcq	%rdx, %r11
	mulq	976(%rsp)
	addq	%rax, %r10
	movq	%r15, %rax
	adcq	%rdx, %r11
	mulq	1008(%rsp)
	movq	%rax, %rsi
	movq	%rdx, %rdi
	movq	%rcx, %rax
	addq	%r10, %rsi
	adcq	%r11, %rdi
	shrdq	$51, %rbx, %rax
	movq	%rax, 80(%rsp)
	movq	1008(%rsp), %rax
	addq	80(%rsp), %rsi
	adcq	88(%rsp), %rdi
	mulq	1096(%rsp)
	movq	%rsi, 560(%rsp)
	movq	%rax, %r10
	movq	%rdx, %r11
	movq	1000(%rsp), %rax
	mulq	1104(%rsp)
	addq	%rax, %r10
	movq	992(%rsp), %rax
	adcq	%rdx, %r11
	mulq	1112(%rsp)
	addq	%rax, %r10
	movq	984(%rsp), %rax
	adcq	%rdx, %r11
	mulq	1120(%rsp)
	addq	%rax, %r10
	movq	976(%rsp), %rax
	adcq	%rdx, %r11
	mulq	1128(%rsp)
	addq	%r10, %rax
	adcq	%r11, %rdx
	shrdq	$51, %rdi, %rsi
	movq	%rsi, 96(%rsp)
	addq	96(%rsp), %rax
	movq	$0, 104(%rsp)
	adcq	104(%rsp), %rdx
	andq	%r12, %r13
	andq	%r12, %r8
	movq	%rax, 576(%rsp)
	shrdq	$51, %rdx, %rax
	andq	%r12, %rcx
	movq	576(%rsp), %rbx
	movq	$0, 120(%rsp)
	leaq	(%rax,%rax,8), %rdx
	leaq	(%rax,%rdx,2), %rdx
	andq	%r12, %rbx
	addq	%rdx, %r13
	movq	%rbx, 648(%rsp)
	movq	%r13, %rdx
	movq	%rbx, 32(%rbp)
	movq	1088(%rsp), %rbx
	andq	%r12, %r13
	shrq	$51, %rdx
	movq	%r13, 0(%rbp)
	movq	1056(%rsp), %r13
	addq	%r8, %rdx
	leaq	(%rbx,%rbx,8), %rax
	movq	%rdx, %rsi
	leaq	(%rbx,%rax,2), %rdi
	shrq	$51, %rdx
	movq	1080(%rsp), %rbx
	andq	%r12, %rsi
	addq	%rdx, %rcx
	movq	%rsi, 8(%rbp)
	movq	560(%rsp), %rsi
	leaq	(%rbx,%rbx,8), %rax
	movq	%rcx, 16(%rbp)
	movq	1064(%rsp), %rcx
	leaq	(%rbx,%rax,2), %r8
	andq	%r12, %rsi
	movq	%rsi, 24(%rbp)
	movq	1072(%rsp), %rsi
	leaq	(%rsi,%rsi,8), %rax
	leaq	(%rsi,%rax,2), %r9
	leaq	(%rcx,%rcx,8), %rax
	leaq	(%rcx,%rax,2), %r14
	movq	%r14, %rax
	mulq	1048(%rsp)
	movq	%rax, %r14
	movq	%rdx, %r15
	movq	%r9, %rax
	mulq	1040(%rsp)
	addq	%rax, %r14
	movq	%r13, %rax
	adcq	%rdx, %r15
	mulq	1016(%rsp)
	addq	%rax, %r14
	movq	%r8, %rax
	adcq	%rdx, %r15
	mulq	1032(%rsp)
	addq	%rax, %r14
	movq	%rdi, %rax
	adcq	%rdx, %r15
	mulq	1024(%rsp)
	addq	%rax, %r14
	movq	%r13, %rax
	adcq	%rdx, %r15
	mulq	1024(%rsp)
	movq	%r14, 560(%rsp)
	movq	%r15, 568(%rsp)
	movq	%rax, %r10
	movq	%rdx, %r11
	movq	%rcx, %rax
	mulq	1016(%rsp)
	addq	%rax, %r10
	movq	%r9, %rax
	adcq	%rdx, %r11
	mulq	1048(%rsp)
	addq	%rax, %r10
	movq	%r8, %rax
	adcq	%rdx, %r11
	mulq	1040(%rsp)
	addq	%rax, %r10
	movq	%rdi, %rax
	adcq	%rdx, %r11
	mulq	1032(%rsp)
	addq	%r10, %rax
	movq	%r14, %r10
	adcq	%r11, %rdx
	shrdq	$51, %r15, %r10
	movq	%r10, 112(%rsp)
	addq	112(%rsp), %rax
	adcq	120(%rsp), %rdx
	movq	%rax, %r14
	movq	%r13, %rax
	movq	$0, 136(%rsp)
	movq	%rdx, %r15
	mulq	1032(%rsp)
	movq	%r14, 576(%rsp)
	movq	%r15, 584(%rsp)
	movq	$0, 152(%rsp)
	movq	%rax, %r10
	movq	%rdx, %r11
	movq	%rcx, %rax
	mulq	1024(%rsp)
	addq	%rax, %r10
	movq	%rsi, %rax
	adcq	%rdx, %r11
	mulq	1016(%rsp)
	addq	%rax, %r10
	movq	%r8, %rax
	movq	%r14, %r8
	adcq	%rdx, %r11
	mulq	1048(%rsp)
	addq	%rax, %r10
	movq	%rdi, %rax
	adcq	%rdx, %r11
	mulq	1040(%rsp)
	addq	%r10, %rax
	adcq	%r11, %rdx
	shrdq	$51, %r15, %r8
	movq	%r8, 128(%rsp)
	addq	128(%rsp), %rax
	adcq	136(%rsp), %rdx
	movq	%rax, %r14
	movq	%r13, %rax
	movq	%rdx, %r15
	mulq	1040(%rsp)
	movq	%r14, 592(%rsp)
	movq	%r15, 600(%rsp)
	movq	%rax, %r10
	movq	%rdx, %r11
	movq	%rcx, %rax
	mulq	1032(%rsp)
	addq	%rax, %r10
	movq	%rsi, %rax
	adcq	%rdx, %r11
	mulq	1024(%rsp)
	addq	%rax, %r10
	movq	%rbx, %rax
	adcq	%rdx, %r11
	mulq	1016(%rsp)
	addq	%rax, %r10
	movq	%rdi, %rax
	adcq	%rdx, %r11
	mulq	1048(%rsp)
	movq	%rax, %r8
	movq	%rdx, %r9
	movq	%r14, %rax
	addq	%r10, %r8
	adcq	%r11, %r9
	shrdq	$51, %r15, %rax
	movq	%rax, 144(%rsp)
	movq	%r9, %r10
	movq	%r13, %rax
	movq	%r8, %r9
	addq	144(%rsp), %r9
	adcq	152(%rsp), %r10
	mulq	1048(%rsp)
	movq	%rax, %r14
	movq	%rdx, %r15
	movq	%rcx, %rax
	mulq	1040(%rsp)
	addq	%rax, %r14
	movq	%rsi, %rax
	adcq	%rdx, %r15
	mulq	1032(%rsp)
	addq	%rax, %r14
	movq	%rbx, %rax
	adcq	%rdx, %r15
	mulq	1024(%rsp)
	addq	%rax, %r14
	movq	1016(%rsp), %rax
	adcq	%rdx, %r15
	mulq	1088(%rsp)
	movq	%r9, 608(%rsp)
	movq	608(%rsp), %r8
	movq	$0, 168(%rsp)
	movq	%r10, 616(%rsp)
	movq	$0, 184(%rsp)
	addq	%r14, %rax
	adcq	%r15, %rdx
	shrdq	$51, %r10, %r9
	movq	%r9, 160(%rsp)
	addq	160(%rsp), %rax
	adcq	168(%rsp), %rdx
	movq	%rax, %r14
	andq	%r12, %r8
	movq	576(%rsp), %r9
	shrdq	$51, %rdx, %rax
	movq	%r8, 64(%rbp)
	leaq	(%rax,%rax,8), %rdx
	andq	%r12, %r9
	leaq	(%rax,%rdx,2), %rdi
	movq	560(%rsp), %rdx
	movq	%r14, %rax
	andq	%r12, %rax
	andq	%r12, %rdx
	movq	%rax, 72(%rbp)
	movq	640(%rsp), %rax
	addq	%rdx, %rdi
	movq	%rdi, %rdx
	andq	%r12, %rdi
	shrq	$51, %rdx
	movq	%rdi, 40(%rbp)
	addq	%r9, %rdx
	movq	%rdx, %r9
	shrq	$51, %rdx
	andq	%r12, %r9
	movq	%r9, 48(%rbp)
	movq	592(%rsp), %r9
	andq	%r12, %r9
	movq	%r9, %rdi
	addq	%rdx, %rdi
	mulq	1088(%rsp)
	movq	%rdi, 56(%rbp)
	movq	632(%rsp), %rdi
	movq	%rax, %r8
	movq	32(%rsp), %rax
	movq	%rdx, %r9
	mulq	%rbx
	addq	%rax, %r8
	movq	%r13, %rax
	adcq	%rdx, %r9
	mulq	1096(%rsp)
	addq	%rax, %r8
	movq	16(%rsp), %rax
	adcq	%rdx, %r9
	movq	%r8, %r10
	mulq	%rsi
	movq	%r9, %r11
	addq	%rax, %r10
	movq	%rdi, %rax
	adcq	%rdx, %r11
	mulq	%rcx
	movq	%r10, %r14
	movq	%r11, %r15
	addq	%rax, %r14
	movq	%rcx, %rax
	adcq	%rdx, %r15
	mulq	1096(%rsp)
	movq	%r15, 40(%rsp)
	movq	%rax, %r8
	movq	%rdx, %r9
	movq	%r13, %rax
	mulq	1104(%rsp)
	addq	%rax, %r8
	movq	32(%rsp), %rax
	movq	%r14, 32(%rsp)
	adcq	%rdx, %r9
	mulq	1088(%rsp)
	addq	%rax, %r8
	movq	16(%rsp), %rax
	adcq	%rdx, %r9
	mulq	%rbx
	addq	%rax, %r8
	movq	%rdi, %rax
	adcq	%rdx, %r9
	mulq	%rsi
	addq	%r8, %rax
	movq	%r14, %r8
	adcq	%r9, %rdx
	shrdq	$51, %r15, %r8
	movq	%r8, 176(%rsp)
	addq	176(%rsp), %rax
	adcq	184(%rsp), %rdx
	movq	%rax, %r14
	movq	%rsi, %rax
	movq	$0, 200(%rsp)
	movq	%rdx, %r15
	movq	%r14, %r9
	movq	$0, 216(%rsp)
	mulq	1096(%rsp)
	movq	$0, 232(%rsp)
	movq	%rax, %r10
	movq	%rdx, %r11
	movq	%rcx, %rax
	mulq	1104(%rsp)
	addq	%rax, %r10
	movq	%r13, %rax
	adcq	%rdx, %r11
	mulq	1112(%rsp)
	addq	%rax, %r10
	movq	16(%rsp), %rax
	movq	%r14, 16(%rsp)
	adcq	%rdx, %r11
	mulq	1088(%rsp)
	addq	%rax, %r10
	movq	%rdi, %rax
	adcq	%rdx, %r11
	mulq	%rbx
	addq	%r10, %rax
	adcq	%r11, %rdx
	shrdq	$51, %r15, %r9
	movq	%r9, 192(%rsp)
	addq	192(%rsp), %rax
	adcq	200(%rsp), %rdx
	movq	%rax, %r14
	movq	%rbx, %rax
	movq	%rdx, %r15
	mulq	1096(%rsp)
	movq	%rax, %r8
	movq	%rdx, %r9
	movq	%rsi, %rax
	mulq	1104(%rsp)
	addq	%rax, %r8
	movq	%rcx, %rax
	adcq	%rdx, %r9
	mulq	1112(%rsp)
	addq	%rax, %r8
	movq	%r13, %rax
	adcq	%rdx, %r9
	mulq	1120(%rsp)
	movq	%rax, %r10
	movq	%rdx, %r11
	movq	%rdi, %rax
	addq	%r8, %r10
	adcq	%r9, %r11
	mulq	1088(%rsp)
	addq	%rax, %r10
	movq	%r14, %rax
	adcq	%rdx, %r11
	shrdq	$51, %r15, %rax
	movq	%rax, 208(%rsp)
	movq	1088(%rsp), %rax
	addq	208(%rsp), %r10
	adcq	216(%rsp), %r11
	mulq	1096(%rsp)
	movq	%rax, %r8
	movq	%rdx, %r9
	movq	%rbx, %rax
	mulq	1104(%rsp)
	addq	%rax, %r8
	movq	%rsi, %rax
	adcq	%rdx, %r9
	mulq	1112(%rsp)
	movq	%rax, %rsi
	movq	%rdx, %rdi
	movq	%rcx, %rax
	addq	%r8, %rsi
	adcq	%r9, %rdi
	mulq	1120(%rsp)
	movq	%rax, %rcx
	movq	%rdx, %rbx
	movq	%r13, %rax
	addq	%rsi, %rcx
	adcq	%rdi, %rbx
	mulq	1128(%rsp)
	addq	%rcx, %rax
	movq	%r10, %rcx
	adcq	%rbx, %rdx
	shrdq	$51, %r11, %rcx
	movq	%rcx, 224(%rsp)
	addq	224(%rsp), %rax
	adcq	232(%rsp), %rdx
	movq	%rax, %r8
	movq	16(%rsp), %rsi
	andq	%r12, %r10
	shrdq	$51, %rdx, %rax
	movq	%r10, 104(%rbp)
	movq	1048(%rsp), %rbx
	leaq	(%rax,%rax,8), %rdx
	andq	%r12, %rsi
	movq	$0, 248(%rsp)
	leaq	(%rax,%rdx,2), %rcx
	movq	32(%rsp), %rdx
	movq	%r8, %rax
	andq	%r12, %rax
	andq	%r12, %rdx
	movq	%rax, 112(%rbp)
	leaq	(%rbx,%rbx,8), %rax
	addq	%rdx, %rcx
	movq	%rcx, %rdx
	andq	%r12, %rcx
	shrq	$51, %rdx
	movq	%rcx, 80(%rbp)
	addq	%rsi, %rdx
	movq	%rdx, %rcx
	shrq	$51, %rdx
	andq	%r12, %rcx
	movq	%rcx, 88(%rbp)
	movq	%r14, %rcx
	andq	%r12, %rcx
	addq	%rdx, %rcx
	movq	%rcx, 96(%rbp)
	leaq	(%rbx,%rax,2), %rcx
	movq	1040(%rsp), %rbx
	leaq	(%rbx,%rbx,8), %rax
	leaq	(%rbx,%rax,2), %rsi
	movq	1032(%rsp), %rbx
	leaq	(%rbx,%rbx,8), %rax
	leaq	(%rbx,%rax,2), %rdi
	movq	1024(%rsp), %rbx
	leaq	(%rbx,%rbx,8), %rax
	leaq	(%rbx,%rax,2), %rbx
	movq	%rbx, %rax
	mulq	1008(%rsp)
	movq	%rax, %r10
	movq	%rdx, %r11
	movq	%rdi, %rax
	mulq	1000(%rsp)
	addq	%rax, %r10
	movq	1016(%rsp), %rax
	adcq	%rdx, %r11
	mulq	976(%rsp)
	addq	%rax, %r10
	movq	%rsi, %rax
	adcq	%rdx, %r11
	mulq	992(%rsp)
	addq	%rax, %r10
	movq	%rcx, %rax
	adcq	%rdx, %r11
	mulq	984(%rsp)
	addq	%rax, %r10
	movq	1016(%rsp), %rax
	adcq	%rdx, %r11
	mulq	984(%rsp)
	movq	%r10, 16(%rsp)
	movq	%r11, 24(%rsp)
	movq	%rax, %r8
	movq	%rdx, %r9
	movq	1024(%rsp), %rax
	mulq	976(%rsp)
	addq	%rax, %r8
	movq	%rdi, %rax
	adcq	%rdx, %r9
	mulq	1008(%rsp)
	addq	%rax, %r8
	movq	%rsi, %rax
	adcq	%rdx, %r9
	mulq	1000(%rsp)
	addq	%rax, %r8
	movq	%rcx, %rax
	adcq	%rdx, %r9
	mulq	992(%rsp)
	addq	%r8, %rax
	movq	%r10, %r8
	adcq	%r9, %rdx
	shrdq	$51, %r11, %r8
	movq	%r8, 240(%rsp)
	addq	240(%rsp), %rax
	adcq	248(%rsp), %rdx
	movq	%rax, %r14
	movq	1016(%rsp), %rax
	movq	$0, 264(%rsp)
	movq	$0, 280(%rsp)
	movq	%rdx, %r15
	mulq	992(%rsp)
	movq	%rax, %r10
	movq	%rdx, %r11
	movq	1024(%rsp), %rax
	mulq	984(%rsp)
	addq	%rax, %r10
	movq	1032(%rsp), %rax
	adcq	%rdx, %r11
	mulq	976(%rsp)
	addq	%rax, %r10
	movq	%rsi, %rax
	adcq	%rdx, %r11
	mulq	1008(%rsp)
	movq	%rax, %rsi
	movq	%rdx, %rdi
	movq	%rcx, %rax
	addq	%r10, %rsi
	adcq	%r11, %rdi
	mulq	1000(%rsp)
	movq	%rax, %r8
	movq	%rdx, %r9
	movq	%r14, %rax
	addq	%rsi, %r8
	adcq	%rdi, %r9
	shrdq	$51, %r15, %rax
	movq	%rax, 256(%rsp)
	movq	1016(%rsp), %rax
	addq	256(%rsp), %r8
	adcq	264(%rsp), %r9
	mulq	1000(%rsp)
	movq	%rax, %r10
	movq	%rdx, %r11
	movq	1024(%rsp), %rax
	mulq	992(%rsp)
	addq	%rax, %r10
	movq	1032(%rsp), %rax
	adcq	%rdx, %r11
	mulq	984(%rsp)
	addq	%rax, %r10
	movq	1040(%rsp), %rax
	adcq	%rdx, %r11
	mulq	976(%rsp)
	addq	%rax, %r10
	movq	%rcx, %rax
	adcq	%rdx, %r11
	mulq	1008(%rsp)
	movq	%rax, %rcx
	movq	%rdx, %rbx
	movq	%r8, %rax
	addq	%r10, %rcx
	adcq	%r11, %rbx
	shrdq	$51, %r9, %rax
	movq	%rax, 272(%rsp)
	movq	1016(%rsp), %rax
	addq	272(%rsp), %rcx
	adcq	280(%rsp), %rbx
	mulq	1008(%rsp)
	movq	%rax, %rsi
	movq	%rdx, %rdi
	movq	1024(%rsp), %rax
	mulq	1000(%rsp)
	movq	16(%rsp), %r13
	movq	$0, 296(%rsp)
	addq	%rax, %rsi
	movq	1032(%rsp), %rax
	adcq	%rdx, %rdi
	mulq	992(%rsp)
	addq	%rax, %rsi
	movq	1040(%rsp), %rax
	adcq	%rdx, %rdi
	mulq	984(%rsp)
	addq	%rax, %rsi
	movq	1048(%rsp), %rax
	adcq	%rdx, %rdi
	mulq	976(%rsp)
	addq	%rsi, %rax
	movq	%rcx, %rsi
	adcq	%rdi, %rdx
	shrdq	$51, %rbx, %rsi
	movq	%rsi, 288(%rsp)
	addq	288(%rsp), %rax
	adcq	296(%rsp), %rdx
	movq	%rax, %r10
	andq	%r12, %r13
	andq	%r12, %r14
	shrdq	$51, %rdx, %rax
	addq	$2, (%rsp)
	andq	%r12, %r8
	andq	%r12, %rcx
	leaq	(%rax,%rax,8), %rdx
	movq	%rcx, 144(%rbp)
	leaq	(%rax,%rdx,2), %rdx
	movq	%r10, %rax
	addq	%rdx, %r13
	andq	%r12, %rax
	movq	%r13, %rdx
	movq	%rax, 152(%rbp)
	movq	(%rsp), %rax
	andq	%r12, %r13
	shrq	$51, %rdx
	movq	%r13, 120(%rbp)
	addq	%rdx, %r14
	movq	%r14, %rdx
	shrq	$51, %r14
	andq	%r12, %rdx
	addq	%r14, %r8
	movq	%rdx, 128(%rbp)
	movq	%r8, 136(%rbp)
	cmpq	$65, %rax
	jne	.L335
	movq	648(%rsp), %rax
	movdqu	0(%rbp), %xmm4
	leaq	848(%rsp), %rsi
	leaq	976(%rsp), %rdi
	movdqu	16(%rbp), %xmm5
	movdqu	40(%rbp), %xmm6
	movq	%rax, 880(%rsp)
	movq	72(%rbp), %rax
	movdqu	56(%rbp), %xmm7
	movaps	%xmm4, 848(%rsp)
	movdqu	80(%rbp), %xmm4
	movq	%rax, 920(%rsp)
	movq	112(%rbp), %rax
	movaps	%xmm5, 864(%rsp)
	movdqu	96(%rbp), %xmm5
	movq	%rax, 960(%rsp)
	movups	%xmm6, 888(%rsp)
	movups	%xmm7, 904(%rsp)
	movaps	%xmm4, 928(%rsp)
	movaps	%xmm5, 944(%rsp)
	call	ge_p2_dbl
	movq	1128(%rsp), %rax
	movq	1128(%rsp), %rbx
	movq	1120(%rsp), %rcx
	movq	1104(%rsp), %r15
	leaq	(%rax,%rax,8), %rax
	movq	1008(%rsp), %rdi
	movq	1000(%rsp), %rsi
	leaq	(%rbx,%rax,2), %rbx
	movq	1120(%rsp), %rax
	movq	976(%rsp), %r14
	movq	984(%rsp), %r13
	movq	%rbx, %r11
	leaq	(%rax,%rax,8), %rax
	movq	%r11, (%rsp)
	leaq	(%rcx,%rax,2), %r10
	movq	1112(%rsp), %rax
	movq	1112(%rsp), %rcx
	movq	%r10, 32(%rsp)
	leaq	(%rax,%rax,8), %rax
	leaq	(%rcx,%rax,2), %rcx
	leaq	(%r15,%r15,8), %rax
	leaq	(%r15,%rax,2), %rax
	movq	%rcx, 16(%rsp)
	movq	%rax, 96(%rsp)
	mulq	%rdi
	movq	%rax, %r8
	movq	%rcx, %rax
	movq	%rdx, %r9
	mulq	%rsi
	addq	%rax, %r8
	movq	%r14, %rax
	adcq	%rdx, %r9
	mulq	1096(%rsp)
	addq	%rax, %r8
	movq	%r10, %rax
	adcq	%rdx, %r9
	mulq	992(%rsp)
	addq	%rax, %r8
	movq	%rbx, %rax
	adcq	%rdx, %r9
	mulq	%r13
	movq	%r8, %rcx
	movq	%r9, %rbx
	addq	%rax, %rcx
	movq	%r13, %rax
	adcq	%rdx, %rbx
	mulq	1096(%rsp)
	movq	%rcx, 48(%rsp)
	movq	%rax, %r8
	movq	%r15, %rax
	movq	%rdx, %r9
	mulq	%r14
	addq	%rax, %r8
	movq	16(%rsp), %rax
	adcq	%rdx, %r9
	mulq	%rdi
	addq	%rax, %r8
	movq	%r10, %rax
	adcq	%rdx, %r9
	mulq	%rsi
	addq	%rax, %r8
	movq	%r11, %rax
	adcq	%rdx, %r9
	mulq	992(%rsp)
	addq	%r8, %rax
	movq	%rcx, %r8
	adcq	%r9, %rdx
	shrdq	$51, %rbx, %r8
	xorl	%ebx, %ebx
	addq	%r8, %rax
	adcq	%rbx, %rdx
	movq	%rax, %r10
	movq	992(%rsp), %rax
	movq	%rdx, %r11
	mulq	1096(%rsp)
	movq	%r10, 64(%rsp)
	movq	%rax, %r8
	movq	%r13, %rax
	movq	%rdx, %r9
	mulq	%r15
	addq	%rax, %r8
	movq	%r14, %rax
	adcq	%rdx, %r9
	mulq	1112(%rsp)
	addq	%rax, %r8
	movq	32(%rsp), %rax
	adcq	%rdx, %r9
	mulq	%rdi
	movq	%rax, %rcx
	movq	(%rsp), %rax
	movq	%rdx, %rbx
	addq	%r8, %rcx
	adcq	%r9, %rbx
	mulq	%rsi
	addq	%rax, %rcx
	movq	%r10, %rax
	adcq	%rdx, %rbx
	shrdq	$51, %r11, %rax
	xorl	%edx, %edx
	addq	%rax, %rcx
	movq	%rsi, %rax
	adcq	%rdx, %rbx
	mulq	1096(%rsp)
	movq	%rcx, %r9
	movq	%rax, %r10
	movq	%rdx, %r11
	movq	%r15, %rax
	mulq	992(%rsp)
	addq	%rax, %r10
	movq	%r13, %rax
	adcq	%rdx, %r11
	mulq	1112(%rsp)
	addq	%rax, %r10
	movq	%r14, %rax
	adcq	%rdx, %r11
	mulq	1120(%rsp)
	addq	%rax, %r10
	movq	(%rsp), %rax
	adcq	%rdx, %r11
	mulq	%rdi
	addq	%r10, %rax
	adcq	%r11, %rdx
	shrdq	$51, %rbx, %r9
	movq	%r9, %r8
	xorl	%r9d, %r9d
	addq	%rax, %r8
	movq	%rdi, %rax
	adcq	%rdx, %r9
	mulq	1096(%rsp)
	movq	1088(%rsp), %rbx
	movq	%rax, %r10
	movq	%rsi, %rax
	movq	%rdx, %r11
	mulq	%r15
	movq	%rax, %rsi
	movq	%rdx, %rdi
	movq	992(%rsp), %rax
	addq	%r10, %rsi
	movq	%r8, %r10
	adcq	%r11, %rdi
	mulq	1112(%rsp)
	addq	%rax, %rsi
	movq	%r13, %rax
	adcq	%rdx, %rdi
	mulq	1120(%rsp)
	addq	%rax, %rsi
	movq	%r14, %rax
	movq	1072(%rsp), %r14
	adcq	%rdx, %rdi
	mulq	1128(%rsp)
	addq	%rax, %rsi
	movq	64(%rsp), %rax
	adcq	%rdx, %rdi
	shrdq	$51, %r9, %r10
	xorl	%edx, %edx
	addq	%r10, %rsi
	adcq	%rdx, %rdi
	movq	%rsi, %r13
	andq	%r12, %rax
	andq	%r12, %rcx
	shrdq	$51, %rdi, %rsi
	movq	48(%rsp), %rdi
	andq	%r12, %r8
	leaq	(%rsi,%rsi,8), %rdx
	movq	%r8, 872(%rsp)
	andq	%r12, %rdi
	leaq	(%rsi,%rdx,2), %rdx
	movq	%r13, %rsi
	movq	1080(%rsp), %r13
	addq	%rdi, %rdx
	andq	%r12, %rsi
	movq	%rdx, %rdi
	andq	%r12, %rdx
	movq	%rsi, 880(%rsp)
	shrq	$51, %rdi
	movq	%rdx, 848(%rsp)
	addq	%rdi, %rax
	movq	%rax, %rdx
	shrq	$51, %rax
	addq	%rax, %rcx
	leaq	(%rbx,%rbx,8), %rax
	andq	%r12, %rdx
	leaq	(%rbx,%rax,2), %rsi
	movq	1064(%rsp), %rbx
	leaq	0(%r13,%r13,8), %rax
	movq	%rcx, 864(%rsp)
	leaq	0(%r13,%rax,2), %rcx
	leaq	(%r14,%r14,8), %rax
	movq	%rdx, 856(%rsp)
	leaq	(%r14,%rax,2), %rdi
	leaq	(%rbx,%rbx,8), %rax
	leaq	(%rbx,%rax,2), %r9
	movq	%r9, %rax
	mulq	1048(%rsp)
	movq	%rax, %r10
	movq	%rdx, %r11
	movq	%rdi, %rax
	mulq	1040(%rsp)
	addq	%rax, %r10
	movq	1056(%rsp), %rax
	adcq	%rdx, %r11
	mulq	1016(%rsp)
	addq	%rax, %r10
	movq	%rcx, %rax
	adcq	%rdx, %r11
	mulq	1032(%rsp)
	addq	%rax, %r10
	movq	%rsi, %rax
	adcq	%rdx, %r11
	mulq	1024(%rsp)
	addq	%rax, %r10
	movq	1024(%rsp), %rax
	adcq	%rdx, %r11
	mulq	1056(%rsp)
	movq	%r10, 48(%rsp)
	movq	%r11, 56(%rsp)
	movq	%rax, %r8
	movq	%rdx, %r9
	movq	%rbx, %rax
	mulq	1016(%rsp)
	addq	%rax, %r8
	movq	%rdi, %rax
	adcq	%rdx, %r9
	mulq	1048(%rsp)
	addq	%rax, %r8
	movq	%rcx, %rax
	adcq	%rdx, %r9
	mulq	1040(%rsp)
	addq	%rax, %r8
	movq	%rsi, %rax
	adcq	%rdx, %r9
	mulq	1032(%rsp)
	addq	%r8, %rax
	adcq	%r9, %rdx
	shrdq	$51, %r11, %r10
	xorl	%r9d, %r9d
	addq	%r10, %rax
	adcq	%r9, %rdx
	movq	%rax, %r10
	movq	1032(%rsp), %rax
	movq	%rdx, %r11
	mulq	1056(%rsp)
	movq	%rax, %r8
	movq	%rdx, %r9
	movq	%rbx, %rax
	mulq	1024(%rsp)
	movq	%r10, 64(%rsp)
	movq	%r11, 72(%rsp)
	addq	%rax, %r8
	movq	%r14, %rax
	adcq	%rdx, %r9
	mulq	1016(%rsp)
	addq	%rax, %r8
	movq	%rcx, %rax
	adcq	%rdx, %r9
	mulq	1048(%rsp)
	addq	%rax, %r8
	movq	%rsi, %rax
	adcq	%rdx, %r9
	mulq	1040(%rsp)
	addq	%r8, %rax
	adcq	%r9, %rdx
	movq	%r10, %r9
	shrdq	$51, %r11, %r9
	movq	%r9, %r10
	xorl	%r9d, %r9d
	addq	%r10, %rax
	adcq	%r9, %rdx
	movq	%rax, %r8
	movq	1040(%rsp), %rax
	movq	%rdx, %r9
	mulq	1056(%rsp)
	movq	%r8, 80(%rsp)
	movq	%r9, 88(%rsp)
	movq	%rax, %r10
	movq	%rdx, %r11
	movq	%rbx, %rax
	mulq	1032(%rsp)
	addq	%rax, %r10
	movq	%r14, %rax
	adcq	%rdx, %r11
	mulq	1024(%rsp)
	addq	%rax, %r10
	movq	%r13, %rax
	adcq	%rdx, %r11
	mulq	1016(%rsp)
	addq	%rax, %r10
	movq	%rsi, %rax
	movq	%r8, %rsi
	adcq	%rdx, %r11
	mulq	1048(%rsp)
	addq	%r10, %rax
	adcq	%r11, %rdx
	shrdq	$51, %r9, %rsi
	xorl	%r11d, %r11d
	movq	%rsi, %r10
	addq	%rax, %r10
	movq	1048(%rsp), %rax
	adcq	%rdx, %r11
	mulq	1056(%rsp)
	movq	%rax, %r8
	movq	%rdx, %r9
	movq	%rbx, %rax
	mulq	1040(%rsp)
	addq	%rax, %r8
	movq	%r14, %rax
	adcq	%rdx, %r9
	mulq	1032(%rsp)
	addq	%rax, %r8
	movq	%r13, %rax
	adcq	%rdx, %r9
	mulq	1024(%rsp)
	addq	%rax, %r8
	movq	1016(%rsp), %rax
	adcq	%rdx, %r9
	mulq	1088(%rsp)
	addq	%r8, %rax
	movq	%r10, %r8
	adcq	%r9, %rdx
	shrdq	$51, %r11, %r8
	xorl	%edi, %edi
	addq	%r8, %rax
	adcq	%rdi, %rdx
	movq	%rax, %r8
	movq	64(%rsp), %rdi
	andq	%r12, %r10
	shrdq	$51, %rdx, %rax
	movq	%r10, 912(%rsp)
	leaq	(%rax,%rax,8), %rdx
	andq	%r12, %rdi
	leaq	(%rax,%rdx,2), %rcx
	movq	48(%rsp), %rdx
	movq	%r8, %rax
	andq	%r12, %rax
	andq	%r12, %rdx
	movq	%rax, 920(%rsp)
	movq	96(%rsp), %rax
	addq	%rdx, %rcx
	movq	%rcx, %rdx
	andq	%r12, %rcx
	shrq	$51, %rdx
	movq	%rcx, 888(%rsp)
	addq	%rdi, %rdx
	movq	%rdx, %rdi
	shrq	$51, %rdx
	andq	%r12, %rdi
	movq	%rdi, 896(%rsp)
	movq	80(%rsp), %rdi
	andq	%r12, %rdi
	movq	%rdi, %rcx
	addq	%rdx, %rcx
	mulq	1088(%rsp)
	movq	%rcx, 904(%rsp)
	movq	%rax, %rsi
	movq	16(%rsp), %rax
	movq	%rdx, %rdi
	mulq	%r13
	addq	%rax, %rsi
	movq	1056(%rsp), %rax
	movq	32(%rsp), %r11
	adcq	%rdx, %rdi
	mulq	1096(%rsp)
	movq	(%rsp), %rcx
	addq	%rax, %rsi
	movq	%r11, %rax
	adcq	%rdx, %rdi
	mulq	%r14
	movq	%rsi, %r8
	movq	%rdi, %r9
	addq	%rax, %r8
	movq	%rcx, %rax
	adcq	%rdx, %r9
	mulq	%rbx
	movq	%r9, %r10
	movq	%r8, %r9
	addq	%rax, %r9
	movq	%rbx, %rax
	adcq	%rdx, %r10
	mulq	1096(%rsp)
	movq	%r9, %r8
	movq	%r9, (%rsp)
	movq	%r10, 8(%rsp)
	movq	%rax, %rsi
	movq	%rdx, %rdi
	movq	%r15, %rax
	mulq	1056(%rsp)
	addq	%rax, %rsi
	movq	16(%rsp), %rax
	adcq	%rdx, %rdi
	mulq	1088(%rsp)
	addq	%rax, %rsi
	movq	%r11, %rax
	adcq	%rdx, %rdi
	mulq	%r13
	addq	%rax, %rsi
	movq	%rcx, %rax
	adcq	%rdx, %rdi
	mulq	%r14
	addq	%rsi, %rax
	adcq	%rdi, %rdx
	shrdq	$51, %r10, %r8
	xorl	%edi, %edi
	addq	%r8, %rax
	adcq	%rdi, %rdx
	movq	%rax, %rsi
	movq	%r14, %rax
	movq	%rdx, %rdi
	mulq	1096(%rsp)
	movq	%rsi, 16(%rsp)
	movq	%rdi, 24(%rsp)
	movq	%rax, %r8
	movq	%rbx, %rax
	movq	%rdx, %r9
	mulq	%r15
	addq	%rax, %r8
	movq	1056(%rsp), %rax
	adcq	%rdx, %r9
	mulq	1112(%rsp)
	addq	%rax, %r8
	movq	%r11, %rax
	adcq	%rdx, %r9
	mulq	1088(%rsp)
	addq	%rax, %r8
	movq	%rcx, %rax
	adcq	%rdx, %r9
	mulq	%r13
	addq	%r8, %rax
	movq	%rsi, %r8
	adcq	%r9, %rdx
	shrdq	$51, %rdi, %r8
	xorl	%r11d, %r11d
	movq	%r8, %r10
	addq	%rax, %r10
	movq	%r13, %rax
	adcq	%rdx, %r11
	mulq	1096(%rsp)
	movq	%r10, %rsi
	movq	%rax, %r8
	movq	%r14, %rax
	movq	%rdx, %r9
	mulq	%r15
	addq	%rax, %r8
	movq	%rbx, %rax
	adcq	%rdx, %r9
	mulq	1112(%rsp)
	addq	%rax, %r8
	movq	1056(%rsp), %rax
	adcq	%rdx, %r9
	mulq	1120(%rsp)
	addq	%rax, %r8
	movq	%rcx, %rax
	adcq	%rdx, %r9
	mulq	1088(%rsp)
	addq	%r8, %rax
	adcq	%r9, %rdx
	shrdq	$51, %r11, %rsi
	xorl	%edi, %edi
	addq	%rsi, %rax
	adcq	%rdi, %rdx
	movq	%rax, %r8
	movq	1088(%rsp), %rax
	movq	%rdx, %r9
	mulq	1096(%rsp)
	movq	%rax, %rsi
	movq	%r13, %rax
	movq	%rdx, %rdi
	mulq	%r15
	addq	%rax, %rsi
	movq	%r14, %rax
	adcq	%rdx, %rdi
	mulq	1112(%rsp)
	addq	%rax, %rsi
	movq	%rbx, %rax
	adcq	%rdx, %rdi
	mulq	1120(%rsp)
	movq	%rsi, %rcx
	movq	%rdi, %rbx
	leaq	976(%rsp), %rdi
	addq	%rax, %rcx
	movq	1056(%rsp), %rax
	adcq	%rdx, %rbx
	mulq	1128(%rsp)
	addq	%rax, %rcx
	movq	%r8, %rax
	adcq	%rdx, %rbx
	shrdq	$51, %r9, %rax
	xorl	%edx, %edx
	addq	%rax, %rcx
	adcq	%rdx, %rbx
	movq	%rcx, %rax
	andq	%r12, %r10
	andq	%r12, %r8
	shrdq	$51, %rbx, %rax
	andq	%r12, %rcx
	leaq	(%rax,%rax,8), %rdx
	leaq	(%rax,%rdx,2), %rdx
	movq	(%rsp), %rax
	andq	%r12, %rax
	addq	%rax, %rdx
	movq	16(%rsp), %rax
	movq	%rdx, %rsi
	andq	%r12, %rdx
	andq	%r12, %rax
	shrq	$51, %rsi
	movq	%rdx, 928(%rsp)
	addq	%rsi, %rax
	leaq	848(%rsp), %rsi
	movq	%rax, %rdx
	shrq	$51, %rax
	andq	%r12, %rdx
	addq	%r10, %rax
	movq	%rdx, 936(%rsp)
	movq	%rax, 944(%rsp)
	movq	%r8, 952(%rsp)
	movq	%rcx, 960(%rsp)
	call	ge_p2_dbl
	movq	1128(%rsp), %rax
	movq	1128(%rsp), %rbx
	movq	1120(%rsp), %rcx
	movq	1008(%rsp), %rdi
	leaq	(%rax,%rax,8), %rax
	movq	1000(%rsp), %rsi
	movq	984(%rsp), %r13
	leaq	(%rbx,%rax,2), %rbx
	movq	1120(%rsp), %rax
	movq	%rbx, %r11
	leaq	(%rax,%rax,8), %rax
	movq	%r11, (%rsp)
	leaq	(%rcx,%rax,2), %r10
	movq	1112(%rsp), %rax
	movq	1112(%rsp), %rcx
	movq	%r10, 16(%rsp)
	leaq	(%rax,%rax,8), %rax
	leaq	(%rcx,%rax,2), %r15
	movq	1104(%rsp), %rax
	movq	1104(%rsp), %rcx
	movq	%r15, 32(%rsp)
	leaq	(%rax,%rax,8), %rax
	leaq	(%rcx,%rax,2), %rax
	movq	%rax, 80(%rsp)
	mulq	%rdi
	movq	%rax, %r8
	movq	%r15, %rax
	movq	%rdx, %r9
	mulq	%rsi
	addq	%rax, %r8
	movq	1096(%rsp), %rax
	adcq	%rdx, %r9
	mulq	976(%rsp)
	addq	%rax, %r8
	movq	%r10, %rax
	adcq	%rdx, %r9
	mulq	992(%rsp)
	addq	%rax, %r8
	movq	%rbx, %rax
	adcq	%rdx, %r9
	mulq	%r13
	movq	%r8, %rcx
	movq	%r9, %rbx
	addq	%rax, %rcx
	movq	%r13, %rax
	adcq	%rdx, %rbx
	mulq	1096(%rsp)
	movq	%rcx, 48(%rsp)
	movq	%rax, %r8
	movq	%rdx, %r9
	movq	1104(%rsp), %rax
	mulq	976(%rsp)
	addq	%rax, %r8
	movq	%r15, %rax
	adcq	%rdx, %r9
	mulq	%rdi
	addq	%rax, %r8
	movq	%r10, %rax
	adcq	%rdx, %r9
	mulq	%rsi
	addq	%rax, %r8
	movq	%r11, %rax
	adcq	%rdx, %r9
	mulq	992(%rsp)
	addq	%r8, %rax
	movq	%rcx, %r8
	adcq	%r9, %rdx
	shrdq	$51, %rbx, %r8
	xorl	%r15d, %r15d
	movq	%r8, %r14
	addq	%rax, %r14
	movq	992(%rsp), %rax
	adcq	%rdx, %r15
	mulq	1096(%rsp)
	movq	%rax, %r8
	movq	%rdx, %r9
	movq	%r13, %rax
	mulq	1104(%rsp)
	addq	%rax, %r8
	movq	1112(%rsp), %rax
	adcq	%rdx, %r9
	mulq	976(%rsp)
	addq	%rax, %r8
	movq	%r10, %rax
	adcq	%rdx, %r9
	mulq	%rdi
	movq	%rax, %rcx
	movq	%rdx, %rbx
	movq	%r11, %rax
	addq	%r8, %rcx
	adcq	%r9, %rbx
	mulq	%rsi
	addq	%rax, %rcx
	movq	%r14, %rax
	adcq	%rdx, %rbx
	shrdq	$51, %r15, %rax
	xorl	%edx, %edx
	addq	%rax, %rcx
	movq	%rsi, %rax
	adcq	%rdx, %rbx
	mulq	1096(%rsp)
	movq	%rax, %r10
	movq	%rdx, %r11
	movq	992(%rsp), %rax
	mulq	1104(%rsp)
	addq	%rax, %r10
	movq	%r13, %rax
	adcq	%rdx, %r11
	mulq	1112(%rsp)
	addq	%rax, %r10
	movq	1120(%rsp), %rax
	movq	1072(%rsp), %r15
	adcq	%rdx, %r11
	mulq	976(%rsp)
	addq	%rax, %r10
	movq	(%rsp), %rax
	adcq	%rdx, %r11
	mulq	%rdi
	addq	%r10, %rax
	movq	%rcx, %r10
	adcq	%r11, %rdx
	shrdq	$51, %rbx, %r10
	xorl	%r9d, %r9d
	movq	1048(%rsp), %rbx
	movq	%r10, %r8
	addq	%rax, %r8
	movq	%rdi, %rax
	adcq	%rdx, %r9
	mulq	1096(%rsp)
	movq	%rax, %r10
	movq	%rdx, %r11
	movq	%rsi, %rax
	mulq	1104(%rsp)
	movq	%rax, %rsi
	movq	%rdx, %rdi
	movq	992(%rsp), %rax
	addq	%r10, %rsi
	movq	%r8, %r10
	adcq	%r11, %rdi
	mulq	1112(%rsp)
	addq	%rax, %rsi
	movq	%r13, %rax
	adcq	%rdx, %rdi
	mulq	1120(%rsp)
	addq	%rax, %rsi
	movq	976(%rsp), %rax
	adcq	%rdx, %rdi
	mulq	1128(%rsp)
	addq	%rax, %rsi
	adcq	%rdx, %rdi
	shrdq	$51, %r9, %r10
	xorl	%edx, %edx
	addq	%r10, %rsi
	adcq	%rdx, %rdi
	movq	%rsi, %rax
	andq	%r12, %rcx
	andq	%r12, %rsi
	shrdq	$51, %rdi, %rax
	andq	%r12, %r8
	movq	%rsi, 880(%rsp)
	leaq	(%rax,%rax,8), %rdx
	movq	%r8, 872(%rsp)
	leaq	(%rax,%rdx,2), %rdx
	movq	48(%rsp), %rax
	andq	%r12, %rax
	addq	%rax, %rdx
	movq	%r14, %rax
	movq	1080(%rsp), %r14
	movq	%rdx, %rdi
	andq	%r12, %rax
	andq	%r12, %rdx
	shrq	$51, %rdi
	movq	%rdx, 848(%rsp)
	addq	%rdi, %rax
	movq	1088(%rsp), %rdi
	movq	%rax, %rdx
	shrq	$51, %rax
	addq	%rax, %rcx
	leaq	(%rdi,%rdi,8), %rax
	andq	%r12, %rdx
	leaq	(%rdi,%rax,2), %rdi
	movq	%rcx, 864(%rsp)
	leaq	(%r14,%r14,8), %rax
	movq	1064(%rsp), %rcx
	leaq	(%r14,%rax,2), %rsi
	leaq	(%r15,%r15,8), %rax
	movq	%rdx, 856(%rsp)
	leaq	(%r15,%rax,2), %r8
	leaq	(%rcx,%rcx,8), %rax
	leaq	(%rcx,%rax,2), %r9
	movq	%r9, %rax
	mulq	%rbx
	movq	%rax, %r12
	movq	%rdx, %r13
	movq	%r8, %rax
	mulq	1040(%rsp)
	addq	%rax, %r12
	movq	1056(%rsp), %rax
	adcq	%rdx, %r13
	mulq	1016(%rsp)
	addq	%rax, %r12
	movq	%rsi, %rax
	adcq	%rdx, %r13
	mulq	1032(%rsp)
	addq	%rax, %r12
	movq	%rdi, %rax
	adcq	%rdx, %r13
	mulq	1024(%rsp)
	movq	%r12, %r10
	movq	%r13, %r11
	addq	%rax, %r10
	movq	1024(%rsp), %rax
	adcq	%rdx, %r11
	mulq	1056(%rsp)
	movq	%r10, 48(%rsp)
	movq	%rax, %r12
	movq	%rdx, %r13
	movq	%rcx, %rax
	mulq	1016(%rsp)
	addq	%rax, %r12
	movq	%r8, %rax
	adcq	%rdx, %r13
	mulq	%rbx
	movq	%rax, %r8
	movq	%rdx, %r9
	movq	%rsi, %rax
	addq	%r12, %r8
	adcq	%r13, %r9
	mulq	1040(%rsp)
	addq	%rax, %r8
	movq	%rdi, %rax
	adcq	%rdx, %r9
	mulq	1032(%rsp)
	movq	%r11, 56(%rsp)
	addq	%r8, %rax
	adcq	%r9, %rdx
	shrdq	$51, %r11, %r10
	xorl	%r13d, %r13d
	movq	%r10, %r12
	addq	%rax, %r12
	movq	1032(%rsp), %rax
	adcq	%rdx, %r13
	mulq	1056(%rsp)
	movq	%rax, %r8
	movq	%rdx, %r9
	movq	%rcx, %rax
	mulq	1024(%rsp)
	addq	%rax, %r8
	movq	%r15, %rax
	adcq	%rdx, %r9
	mulq	1016(%rsp)
	addq	%rax, %r8
	movq	%rsi, %rax
	adcq	%rdx, %r9
	mulq	%rbx
	addq	%rax, %r8
	movq	%rdi, %rax
	adcq	%rdx, %r9
	mulq	1040(%rsp)
	addq	%r8, %rax
	adcq	%r9, %rdx
	movq	%r12, %r9
	shrdq	$51, %r13, %r9
	movq	16(%rsp), %r13
	movq	%r9, %r10
	xorl	%r9d, %r9d
	addq	%r10, %rax
	adcq	%r9, %rdx
	movq	%rax, %r10
	movq	1040(%rsp), %rax
	movq	%rdx, %r11
	mulq	1056(%rsp)
	movq	%r10, 64(%rsp)
	movq	%r11, 72(%rsp)
	movq	%rax, %r8
	movq	%rdx, %r9
	movq	%rcx, %rax
	mulq	1032(%rsp)
	addq	%rax, %r8
	movq	%r15, %rax
	adcq	%rdx, %r9
	mulq	1024(%rsp)
	addq	%rax, %r8
	movq	%r14, %rax
	adcq	%rdx, %r9
	mulq	1016(%rsp)
	addq	%rax, %r8
	movq	%rdi, %rax
	adcq	%rdx, %r9
	mulq	%rbx
	addq	%rax, %r8
	movq	%r10, %rax
	adcq	%rdx, %r9
	shrdq	$51, %r11, %rax
	xorl	%r11d, %r11d
	movq	%rax, %r10
	movq	%rbx, %rax
	movabsq	$2251799813685247, %rbx
	addq	%r8, %r10
	adcq	%r9, %r11
	mulq	1056(%rsp)
	movq	%rax, %r8
	movq	%rdx, %r9
	movq	%rcx, %rax
	mulq	1040(%rsp)
	addq	%rax, %r8
	movq	%r15, %rax
	adcq	%rdx, %r9
	mulq	1032(%rsp)
	addq	%rax, %r8
	movq	%r14, %rax
	adcq	%rdx, %r9
	mulq	1024(%rsp)
	addq	%rax, %r8
	movq	1016(%rsp), %rax
	adcq	%rdx, %r9
	mulq	1088(%rsp)
	addq	%r8, %rax
	movq	%r10, %r8
	adcq	%r9, %rdx
	shrdq	$51, %r11, %r8
	xorl	%edi, %edi
	addq	%r8, %rax
	adcq	%rdi, %rdx
	movq	%rax, %rsi
	movq	%r12, %rdi
	andq	%rbx, %rax
	shrdq	$51, %rdx, %rsi
	andq	%rbx, %rdi
	movq	%rax, 920(%rsp)
	movq	80(%rsp), %rax
	leaq	(%rsi,%rsi,8), %rdx
	andq	%rbx, %r10
	leaq	(%rsi,%rdx,2), %rsi
	movq	48(%rsp), %rdx
	movq	%r10, 912(%rsp)
	movq	(%rsp), %r10
	andq	%rbx, %rdx
	addq	%rdx, %rsi
	movq	%rsi, %rdx
	andq	%rbx, %rsi
	shrq	$51, %rdx
	movq	%rsi, 888(%rsp)
	addq	%rdi, %rdx
	movq	%rdx, %rsi
	shrq	$51, %rdx
	andq	%rbx, %rsi
	movq	%rsi, 896(%rsp)
	movq	64(%rsp), %rsi
	andq	%rbx, %rsi
	addq	%rdx, %rsi
	mulq	1088(%rsp)
	movq	%rsi, 904(%rsp)
	movq	%rax, %rsi
	movq	32(%rsp), %rax
	movq	%rdx, %rdi
	mulq	%r14
	addq	%rax, %rsi
	movq	1056(%rsp), %rax
	adcq	%rdx, %rdi
	mulq	1096(%rsp)
	addq	%rax, %rsi
	movq	%r13, %rax
	adcq	%rdx, %rdi
	mulq	%r15
	movq	%rsi, %r8
	movq	%rdi, %r9
	addq	%rax, %r8
	movq	%r10, %rax
	adcq	%rdx, %r9
	mulq	%rcx
	movq	%r8, %r11
	movq	%r9, %r12
	addq	%rax, %r11
	movq	%rcx, %rax
	adcq	%rdx, %r12
	mulq	1096(%rsp)
	movq	%r11, %r8
	movq	%r12, 40(%rsp)
	movq	%rax, %rsi
	movq	%rdx, %rdi
	movq	1056(%rsp), %rax
	mulq	1104(%rsp)
	addq	%rax, %rsi
	movq	32(%rsp), %rax
	movq	%r11, 32(%rsp)
	adcq	%rdx, %rdi
	mulq	1088(%rsp)
	addq	%rax, %rsi
	movq	%r13, %rax
	adcq	%rdx, %rdi
	mulq	%r14
	addq	%rax, %rsi
	movq	%r10, %rax
	adcq	%rdx, %rdi
	mulq	%r15
	addq	%rsi, %rax
	adcq	%rdi, %rdx
	shrdq	$51, %r12, %r8
	xorl	%r13d, %r13d
	movq	%r8, %r12
	addq	%rax, %r12
	movq	%r15, %rax
	adcq	%rdx, %r13
	mulq	1096(%rsp)
	movq	%r12, %rsi
	movq	%rax, %r8
	movq	%rdx, %r9
	movq	%rcx, %rax
	mulq	1104(%rsp)
	addq	%rax, %r8
	movq	1056(%rsp), %rax
	adcq	%rdx, %r9
	mulq	1112(%rsp)
	addq	%rax, %r8
	movq	16(%rsp), %rax
	adcq	%rdx, %r9
	mulq	1088(%rsp)
	addq	%rax, %r8
	movq	%r10, %rax
	adcq	%rdx, %r9
	mulq	%r14
	addq	%r8, %rax
	adcq	%r9, %rdx
	shrdq	$51, %r13, %rsi
	xorl	%r11d, %r11d
	movq	%rsi, %r10
	addq	%rax, %r10
	movq	%r14, %rax
	adcq	%rdx, %r11
	mulq	1096(%rsp)
	movq	%r10, %rsi
	movq	%rax, %r8
	movq	%rdx, %r9
	movq	%r15, %rax
	mulq	1104(%rsp)
	addq	%rax, %r8
	movq	%rcx, %rax
	adcq	%rdx, %r9
	mulq	1112(%rsp)
	addq	%rax, %r8
	movq	1056(%rsp), %rax
	adcq	%rdx, %r9
	mulq	1120(%rsp)
	addq	%rax, %r8
	movq	(%rsp), %rax
	adcq	%rdx, %r9
	mulq	1088(%rsp)
	addq	%r8, %rax
	adcq	%r9, %rdx
	shrdq	$51, %r11, %rsi
	xorl	%edi, %edi
	addq	%rsi, %rax
	adcq	%rdi, %rdx
	movq	%rax, %r8
	movq	1088(%rsp), %rax
	movq	%rdx, %r9
	mulq	1096(%rsp)
	movq	%rax, %rsi
	movq	%rdx, %rdi
	movq	%r14, %rax
	movq	%r8, %r14
	mulq	1104(%rsp)
	addq	%rax, %rsi
	movq	%r15, %rax
	adcq	%rdx, %rdi
	mulq	1112(%rsp)
	addq	%rax, %rsi
	movq	%rcx, %rax
	adcq	%rdx, %rdi
	mulq	1120(%rsp)
	addq	%rax, %rsi
	movq	1056(%rsp), %rax
	adcq	%rdx, %rdi
	mulq	1128(%rsp)
	addq	%rax, %rsi
	adcq	%rdx, %rdi
	shrdq	$51, %r9, %r14
	xorl	%edx, %edx
	addq	%r14, %rsi
	adcq	%rdx, %rdi
	movq	%rsi, %rax
	andq	%rbx, %r10
	andq	%rbx, %r8
	shrdq	$51, %rdi, %rax
	andq	%rbx, %rsi
	movq	%r8, 952(%rsp)
	leaq	976(%rsp), %rdi
	leaq	(%rax,%rax,8), %rdx
	leaq	(%rax,%rdx,2), %rdx
	movq	32(%rsp), %rax
	andq	%rbx, %rax
	addq	%rax, %rdx
	movq	%r12, %rax
	movq	%rdx, %rcx
	andq	%rbx, %rax
	andq	%rbx, %rdx
	shrq	$51, %rcx
	movq	%rdx, 928(%rsp)
	addq	%rcx, %rax
	movq	%rax, %rdx
	shrq	$51, %rax
	andq	%rbx, %rdx
	addq	%r10, %rax
	movq	%rdx, 936(%rsp)
	movq	%rax, 944(%rsp)
	movq	%rsi, 960(%rsp)
	leaq	848(%rsp), %rsi
	call	ge_p2_dbl
	movq	1128(%rsp), %rax
	movq	1128(%rsp), %rdi
	movq	1120(%rsp), %rcx
	movq	992(%rsp), %r12
	leaq	(%rax,%rax,8), %rax
	movq	984(%rsp), %r13
	leaq	(%rdi,%rax,2), %rdi
	movq	1120(%rsp), %rax
	movq	%rdi, %r11
	leaq	(%rax,%rax,8), %rax
	movq	%r11, (%rsp)
	leaq	(%rcx,%rax,2), %r10
	movq	1112(%rsp), %rax
	movq	1112(%rsp), %rcx
	movq	%r10, 80(%rsp)
	leaq	(%rax,%rax,8), %rax
	leaq	(%rcx,%rax,2), %r15
	movq	1104(%rsp), %rax
	movq	1104(%rsp), %rcx
	movq	%r15, 16(%rsp)
	leaq	(%rax,%rax,8), %rax
	leaq	(%rcx,%rax,2), %rax
	movq	1000(%rsp), %rcx
	movq	%rax, 96(%rsp)
	mulq	1008(%rsp)
	movq	%rax, %r8
	movq	%r15, %rax
	movq	%rdx, %r9
	mulq	%rcx
	addq	%rax, %r8
	movq	1096(%rsp), %rax
	adcq	%rdx, %r9
	mulq	976(%rsp)
	addq	%rax, %r8
	movq	%r10, %rax
	adcq	%rdx, %r9
	mulq	%r12
	addq	%rax, %r8
	movq	%rdi, %rax
	adcq	%rdx, %r9
	mulq	%r13
	movq	%r8, %rsi
	movq	%r9, %rdi
	addq	%rax, %rsi
	movq	%r13, %rax
	adcq	%rdx, %rdi
	mulq	1096(%rsp)
	movq	%rsi, 32(%rsp)
	movq	%rax, %r8
	movq	%rdx, %r9
	movq	1104(%rsp), %rax
	mulq	976(%rsp)
	addq	%rax, %r8
	movq	%r15, %rax
	adcq	%rdx, %r9
	mulq	1008(%rsp)
	addq	%rax, %r8
	movq	%r10, %rax
	adcq	%rdx, %r9
	mulq	%rcx
	addq	%rax, %r8
	movq	%r11, %rax
	adcq	%rdx, %r9
	mulq	%r12
	addq	%r8, %rax
	movq	%rsi, %r8
	adcq	%r9, %rdx
	shrdq	$51, %rdi, %r8
	xorl	%r15d, %r15d
	movq	%r8, %r14
	addq	%rax, %r14
	movq	%r12, %rax
	adcq	%rdx, %r15
	mulq	1096(%rsp)
	movq	%rax, %r8
	movq	%rdx, %r9
	movq	%r13, %rax
	mulq	1104(%rsp)
	addq	%rax, %r8
	movq	1112(%rsp), %rax
	adcq	%rdx, %r9
	mulq	976(%rsp)
	addq	%rax, %r8
	movq	%r10, %rax
	adcq	%rdx, %r9
	mulq	1008(%rsp)
	movq	%rax, %rsi
	movq	%rdx, %rdi
	movq	%r11, %rax
	addq	%r8, %rsi
	adcq	%r9, %rdi
	mulq	%rcx
	addq	%rax, %rsi
	movq	%r14, %rax
	adcq	%rdx, %rdi
	shrdq	$51, %r15, %rax
	xorl	%edx, %edx
	addq	%rax, %rsi
	movq	%rcx, %rax
	adcq	%rdx, %rdi
	mulq	1096(%rsp)
	movq	%rax, %r10
	movq	%rdx, %r11
	movq	%r12, %rax
	mulq	1104(%rsp)
	addq	%rax, %r10
	movq	%r13, %rax
	adcq	%rdx, %r11
	mulq	1112(%rsp)
	addq	%rax, %r10
	movq	1120(%rsp), %rax
	adcq	%rdx, %r11
	mulq	976(%rsp)
	movq	1064(%rsp), %r15
	addq	%rax, %r10
	movq	(%rsp), %rax
	adcq	%rdx, %r11
	mulq	1008(%rsp)
	addq	%r10, %rax
	movq	%rsi, %r10
	adcq	%r11, %rdx
	shrdq	$51, %rdi, %r10
	xorl	%r9d, %r9d
	movq	1088(%rsp), %rdi
	movq	%r10, %r8
	addq	%rax, %r8
	movq	1008(%rsp), %rax
	adcq	%rdx, %r9
	mulq	1096(%rsp)
	movq	%rax, %r10
	movq	%rdx, %r11
	movq	%rcx, %rax
	mulq	1104(%rsp)
	addq	%rax, %r10
	movq	%r12, %rax
	movq	%r8, %r12
	adcq	%rdx, %r11
	mulq	1112(%rsp)
	addq	%rax, %r10
	movq	%r13, %rax
	movq	1080(%rsp), %r13
	adcq	%rdx, %r11
	mulq	1120(%rsp)
	addq	%rax, %r10
	movq	976(%rsp), %rax
	adcq	%rdx, %r11
	mulq	1128(%rsp)
	addq	%rax, %r10
	adcq	%rdx, %r11
	shrdq	$51, %r9, %r12
	xorl	%edx, %edx
	addq	%r12, %r10
	movq	1072(%rsp), %r12
	adcq	%rdx, %r11
	movq	%r10, %rax
	andq	%rbx, %rsi
	andq	%rbx, %r10
	shrdq	$51, %r11, %rax
	movq	%r10, 880(%rsp)
	andq	%rbx, %r8
	leaq	(%rax,%rax,8), %rdx
	movq	%r8, 872(%rsp)
	leaq	(%rax,%rdx,2), %rdx
	movq	32(%rsp), %rax
	andq	%rbx, %rax
	addq	%rax, %rdx
	movq	%r14, %rax
	movq	%rdx, %r14
	andq	%rbx, %rax
	andq	%rbx, %rdx
	shrq	$51, %r14
	movq	%rdx, 848(%rsp)
	addq	%r14, %rax
	movq	1056(%rsp), %r14
	movq	%rax, %rdx
	shrq	$51, %rax
	addq	%rax, %rsi
	leaq	(%rdi,%rdi,8), %rax
	andq	%rbx, %rdx
	movq	%rsi, 864(%rsp)
	leaq	(%rdi,%rax,2), %rsi
	leaq	0(%r13,%r13,8), %rax
	leaq	0(%r13,%rax,2), %rcx
	leaq	(%r12,%r12,8), %rax
	movq	%rdx, 856(%rsp)
	leaq	(%r12,%rax,2), %rdi
	leaq	(%r15,%r15,8), %rax
	leaq	(%r15,%rax,2), %r9
	movq	%r9, %rax
	mulq	1048(%rsp)
	movq	%rax, %r10
	movq	%rdx, %r11
	movq	%rdi, %rax
	mulq	1040(%rsp)
	addq	%rax, %r10
	movq	%r14, %rax
	adcq	%rdx, %r11
	mulq	1016(%rsp)
	addq	%rax, %r10
	movq	%rcx, %rax
	adcq	%rdx, %r11
	mulq	1032(%rsp)
	addq	%rax, %r10
	movq	%rsi, %rax
	adcq	%rdx, %r11
	mulq	1024(%rsp)
	addq	%rax, %r10
	movq	%r14, %rax
	adcq	%rdx, %r11
	mulq	1024(%rsp)
	movq	%r10, 32(%rsp)
	movq	%rax, %r8
	movq	%rdx, %r9
	movq	%r15, %rax
	mulq	1016(%rsp)
	addq	%rax, %r8
	movq	%rdi, %rax
	adcq	%rdx, %r9
	mulq	1048(%rsp)
	addq	%rax, %r8
	movq	%rcx, %rax
	adcq	%rdx, %r9
	mulq	1040(%rsp)
	addq	%rax, %r8
	movq	%rsi, %rax
	adcq	%rdx, %r9
	mulq	1032(%rsp)
	movq	%r11, 40(%rsp)
	addq	%r8, %rax
	adcq	%r9, %rdx
	shrdq	$51, %r11, %r10
	xorl	%r9d, %r9d
	addq	%r10, %rax
	adcq	%r9, %rdx
	movq	%rax, %r10
	movq	%r14, %rax
	movq	%rdx, %r11
	mulq	1032(%rsp)
	movq	%r10, 48(%rsp)
	movq	%r11, 56(%rsp)
	movq	%rax, %r8
	movq	%rdx, %r9
	movq	%r15, %rax
	mulq	1024(%rsp)
	addq	%rax, %r8
	movq	%r12, %rax
	adcq	%rdx, %r9
	mulq	1016(%rsp)
	addq	%rax, %r8
	movq	%rcx, %rax
	adcq	%rdx, %r9
	mulq	1048(%rsp)
	addq	%rax, %r8
	movq	%rsi, %rax
	adcq	%rdx, %r9
	mulq	1040(%rsp)
	addq	%r8, %rax
	adcq	%r9, %rdx
	movq	%r10, %r9
	shrdq	$51, %r11, %r9
	movq	%r9, %r10
	xorl	%r9d, %r9d
	addq	%r10, %rax
	adcq	%r9, %rdx
	movq	%rax, %r8
	movq	%r14, %rax
	movq	%rdx, %r9
	mulq	1040(%rsp)
	movq	%r8, 64(%rsp)
	movq	%r9, 72(%rsp)
	movq	%rax, %r10
	movq	%rdx, %r11
	movq	%r15, %rax
	mulq	1032(%rsp)
	addq	%rax, %r10
	movq	%r12, %rax
	adcq	%rdx, %r11
	mulq	1024(%rsp)
	addq	%rax, %r10
	movq	%r13, %rax
	adcq	%rdx, %r11
	mulq	1016(%rsp)
	addq	%rax, %r10
	movq	%rsi, %rax
	movq	%r8, %rsi
	adcq	%rdx, %r11
	mulq	1048(%rsp)
	addq	%r10, %rax
	adcq	%r11, %rdx
	shrdq	$51, %r9, %rsi
	xorl	%r11d, %r11d
	movq	%rsi, %r10
	addq	%rax, %r10
	movq	%r14, %rax
	adcq	%rdx, %r11
	mulq	1048(%rsp)
	movq	%rax, %r8
	movq	%rdx, %r9
	movq	%r15, %rax
	mulq	1040(%rsp)
	addq	%rax, %r8
	movq	%r12, %rax
	adcq	%rdx, %r9
	mulq	1032(%rsp)
	addq	%rax, %r8
	movq	%r13, %rax
	adcq	%rdx, %r9
	mulq	1024(%rsp)
	addq	%rax, %r8
	movq	1016(%rsp), %rax
	adcq	%rdx, %r9
	mulq	1088(%rsp)
	addq	%r8, %rax
	movq	%r10, %r8
	adcq	%r9, %rdx
	shrdq	$51, %r11, %r8
	xorl	%edi, %edi
	addq	%r8, %rax
	adcq	%rdi, %rdx
	movq	%rax, %r8
	movq	48(%rsp), %rdi
	andq	%rbx, %r10
	shrdq	$51, %rdx, %rax
	movq	%r10, 912(%rsp)
	leaq	(%rax,%rax,8), %rdx
	andq	%rbx, %rdi
	leaq	(%rax,%rdx,2), %rcx
	movq	32(%rsp), %rdx
	movq	%r8, %rax
	andq	%rbx, %rax
	andq	%rbx, %rdx
	movq	%rax, 920(%rsp)
	movq	96(%rsp), %rax
	addq	%rdx, %rcx
	movq	%rcx, %rdx
	andq	%rbx, %rcx
	shrq	$51, %rdx
	movq	%rcx, 888(%rsp)
	addq	%rdi, %rdx
	movq	%rdx, %rdi
	shrq	$51, %rdx
	andq	%rbx, %rdi
	movq	%rdi, 896(%rsp)
	movq	64(%rsp), %rdi
	andq	%rbx, %rdi
	movq	%rdi, %rcx
	addq	%rdx, %rcx
	mulq	1088(%rsp)
	movq	%rcx, 904(%rsp)
	movq	%rax, %rsi
	movq	16(%rsp), %rax
	movq	%rdx, %rdi
	mulq	%r13
	addq	%rax, %rsi
	movq	%r14, %rax
	adcq	%rdx, %rdi
	mulq	1096(%rsp)
	movq	80(%rsp), %r11
	movq	(%rsp), %rcx
	addq	%rax, %rsi
	movq	%r11, %rax
	adcq	%rdx, %rdi
	mulq	%r12
	movq	%rsi, %r8
	movq	%rdi, %r9
	addq	%rax, %r8
	movq	%rcx, %rax
	adcq	%rdx, %r9
	mulq	%r15
	movq	%r9, %r10
	movq	%r8, %r9
	addq	%rax, %r9
	movq	%r15, %rax
	adcq	%rdx, %r10
	mulq	1096(%rsp)
	movq	%r9, %r8
	movq	%r9, (%rsp)
	movq	%r10, 8(%rsp)
	movq	%rax, %rsi
	movq	%rdx, %rdi
	movq	%r14, %rax
	mulq	1104(%rsp)
	addq	%rax, %rsi
	movq	16(%rsp), %rax
	adcq	%rdx, %rdi
	mulq	1088(%rsp)
	addq	%rax, %rsi
	movq	%r11, %rax
	adcq	%rdx, %rdi
	mulq	%r13
	addq	%rax, %rsi
	movq	%rcx, %rax
	adcq	%rdx, %rdi
	mulq	%r12
	addq	%rsi, %rax
	adcq	%rdi, %rdx
	shrdq	$51, %r10, %r8
	xorl	%edi, %edi
	addq	%r8, %rax
	adcq	%rdi, %rdx
	movq	%rax, %rsi
	movq	%r12, %rax
	movq	%rdx, %rdi
	mulq	1096(%rsp)
	movq	%rsi, 16(%rsp)
	movq	%rdi, 24(%rsp)
	movq	%rax, %r8
	movq	%rdx, %r9
	movq	%r15, %rax
	mulq	1104(%rsp)
	addq	%rax, %r8
	movq	%r14, %rax
	adcq	%rdx, %r9
	mulq	1112(%rsp)
	addq	%rax, %r8
	movq	%r11, %rax
	adcq	%rdx, %r9
	mulq	1088(%rsp)
	addq	%rax, %r8
	movq	%rcx, %rax
	adcq	%rdx, %r9
	mulq	%r13
	addq	%r8, %rax
	movq	%rsi, %r8
	adcq	%r9, %rdx
	shrdq	$51, %rdi, %r8
	xorl	%r11d, %r11d
	movq	%r8, %r10
	addq	%rax, %r10
	movq	%r13, %rax
	adcq	%rdx, %r11
	mulq	1096(%rsp)
	movq	%r10, %rsi
	movq	%rax, %r8
	movq	%rdx, %r9
	movq	%r12, %rax
	mulq	1104(%rsp)
	addq	%rax, %r8
	movq	%r15, %rax
	adcq	%rdx, %r9
	mulq	1112(%rsp)
	addq	%rax, %r8
	movq	%r14, %rax
	adcq	%rdx, %r9
	mulq	1120(%rsp)
	addq	%rax, %r8
	movq	%rcx, %rax
	adcq	%rdx, %r9
	mulq	1088(%rsp)
	addq	%r8, %rax
	adcq	%r9, %rdx
	shrdq	$51, %r11, %rsi
	xorl	%edi, %edi
	addq	%rsi, %rax
	adcq	%rdi, %rdx
	movq	%rax, %r8
	movq	1088(%rsp), %rax
	movq	%rdx, %r9
	mulq	1096(%rsp)
	movq	%rax, %rsi
	movq	%rdx, %rdi
	movq	%r13, %rax
	mulq	1104(%rsp)
	addq	%rax, %rsi
	movq	%r12, %rax
	movq	%r8, %r12
	adcq	%rdx, %rdi
	mulq	1112(%rsp)
	addq	%rax, %rsi
	movq	%r15, %rax
	adcq	%rdx, %rdi
	mulq	1120(%rsp)
	addq	%rax, %rsi
	movq	%r14, %rax
	adcq	%rdx, %rdi
	mulq	1128(%rsp)
	addq	%rax, %rsi
	adcq	%rdx, %rdi
	shrdq	$51, %r9, %r12
	xorl	%edx, %edx
	addq	%r12, %rsi
	adcq	%rdx, %rdi
	movq	%rsi, %rax
	andq	%rbx, %r10
	andq	%rbx, %rsi
	shrdq	$51, %rdi, %rax
	andq	%rbx, %r8
	movq	%rsi, 960(%rsp)
	leaq	976(%rsp), %rdi
	leaq	(%rax,%rax,8), %rdx
	leaq	848(%rsp), %rsi
	movq	%r8, 952(%rsp)
	leaq	(%rax,%rdx,2), %rdx
	movq	(%rsp), %rax
	andq	%rbx, %rax
	addq	%rax, %rdx
	movq	16(%rsp), %rax
	movq	%rdx, %rcx
	andq	%rbx, %rdx
	shrq	$51, %rcx
	andq	%rbx, %rax
	movq	%rdx, 928(%rsp)
	addq	%rcx, %rax
	movq	%rax, %rdx
	shrq	$51, %rax
	andq	%rbx, %rdx
	addq	%r10, %rax
	movq	%rdx, 936(%rsp)
	movq	%rax, 944(%rsp)
	call	ge_p2_dbl
	movq	1128(%rsp), %rax
	movq	1128(%rsp), %rdi
	movq	1120(%rsp), %rcx
	leaq	(%rax,%rax,8), %rax
	leaq	(%rdi,%rax,2), %rdi
	movq	1120(%rsp), %rax
	leaq	(%rax,%rax,8), %rax
	leaq	(%rcx,%rax,2), %r10
	movq	1112(%rsp), %rax
	movq	1112(%rsp), %rcx
	movq	%r10, 96(%rsp)
	leaq	(%rax,%rax,8), %rax
	leaq	(%rcx,%rax,2), %rsi
	movq	1104(%rsp), %rax
	movq	1104(%rsp), %rcx
	movq	%rsi, (%rsp)
	leaq	(%rax,%rax,8), %rax
	leaq	(%rcx,%rax,2), %rax
	movq	%rdi, %rcx
	movq	%rax, 112(%rsp)
	mulq	1008(%rsp)
	movq	%rax, %r8
	movq	%rdx, %r9
	movq	%rsi, %rax
	mulq	1000(%rsp)
	addq	%rax, %r8
	movq	1096(%rsp), %rax
	adcq	%rdx, %r9
	mulq	976(%rsp)
	addq	%rax, %r8
	movq	%r10, %rax
	adcq	%rdx, %r9
	mulq	992(%rsp)
	addq	%rax, %r8
	movq	%rdi, %rax
	adcq	%rdx, %r9
	mulq	984(%rsp)
	movq	%r8, %r14
	movq	%r9, %r15
	addq	%rax, %r14
	movq	984(%rsp), %rax
	adcq	%rdx, %r15
	mulq	1096(%rsp)
	movq	%rax, %r8
	movq	%rdx, %r9
	movq	1104(%rsp), %rax
	mulq	976(%rsp)
	addq	%rax, %r8
	movq	%rsi, %rax
	adcq	%rdx, %r9
	mulq	1008(%rsp)
	addq	%rax, %r8
	movq	%r10, %rax
	adcq	%rdx, %r9
	mulq	1000(%rsp)
	addq	%rax, %r8
	movq	%rdi, %rax
	adcq	%rdx, %r9
	mulq	992(%rsp)
	addq	%r8, %rax
	movq	%r14, %r8
	adcq	%r9, %rdx
	shrdq	$51, %r15, %r8
	xorl	%edi, %edi
	addq	%r8, %rax
	adcq	%rdi, %rdx
	movq	%rax, %r11
	movq	992(%rsp), %rax
	movq	%rdx, %r12
	mulq	1096(%rsp)
	movq	%rax, %r8
	movq	%rdx, %r9
	movq	984(%rsp), %rax
	mulq	1104(%rsp)
	addq	%rax, %r8
	movq	1112(%rsp), %rax
	adcq	%rdx, %r9
	mulq	976(%rsp)
	addq	%rax, %r8
	movq	%r10, %rax
	adcq	%rdx, %r9
	mulq	1008(%rsp)
	movq	%rax, %rsi
	movq	%rdx, %rdi
	movq	%rcx, %rax
	addq	%r8, %rsi
	movq	%r11, %r8
	adcq	%r9, %rdi
	mulq	1000(%rsp)
	movq	%r11, 16(%rsp)
	movq	%rcx, 80(%rsp)
	addq	%rax, %rsi
	movq	1000(%rsp), %rax
	adcq	%rdx, %rdi
	shrdq	$51, %r12, %r8
	xorl	%edx, %edx
	addq	%r8, %rsi
	adcq	%rdx, %rdi
	mulq	1096(%rsp)
	movq	%rsi, 32(%rsp)
	movq	%rax, %r10
	movq	%rdx, %r11
	movq	992(%rsp), %rax
	mulq	1104(%rsp)
	addq	%rax, %r10
	movq	984(%rsp), %rax
	adcq	%rdx, %r11
	mulq	1112(%rsp)
	addq	%rax, %r10
	movq	1120(%rsp), %rax
	adcq	%rdx, %r11
	mulq	976(%rsp)
	movq	%rax, %r8
	movq	%rdx, %r9
	movq	%rcx, %rax
	addq	%r10, %r8
	adcq	%r11, %r9
	mulq	1008(%rsp)
	addq	%rax, %r8
	movq	1008(%rsp), %rax
	adcq	%rdx, %r9
	shrdq	$51, %rdi, %rsi
	xorl	%edx, %edx
	addq	%rsi, %r8
	movq	32(%rsp), %rsi
	adcq	%rdx, %r9
	mulq	1096(%rsp)
	movq	%rax, %r12
	movq	%rdx, %r13
	movq	1000(%rsp), %rax
	mulq	1104(%rsp)
	addq	%rax, %r12
	movq	992(%rsp), %rax
	adcq	%rdx, %r13
	mulq	1112(%rsp)
	addq	%rax, %r12
	movq	984(%rsp), %rax
	adcq	%rdx, %r13
	mulq	1120(%rsp)
	addq	%rax, %r12
	movq	976(%rsp), %rax
	adcq	%rdx, %r13
	mulq	1128(%rsp)
	addq	%r12, %rax
	movq	%r8, %r12
	adcq	%r13, %rdx
	shrdq	$51, %r9, %r12
	xorl	%r11d, %r11d
	movq	1080(%rsp), %r13
	addq	%r12, %rax
	adcq	%r11, %rdx
	movq	%rax, %r12
	andq	%rbx, %r14
	andq	%rbx, %rsi
	shrdq	$51, %rdx, %rax
	andq	%rbx, %r8
	leaq	(%rax,%rax,8), %rdx
	movq	%r8, 24(%rbp)
	leaq	(%rax,%rdx,2), %rcx
	movq	16(%rsp), %rdx
	movq	%r12, %rax
	movq	1072(%rsp), %r12
	addq	%r14, %rcx
	andq	%rbx, %rax
	movq	%rcx, %rdi
	andq	%rbx, %rdx
	movq	%rax, 32(%rbp)
	andq	%rbx, %rcx
	shrq	$51, %rdi
	movq	%rcx, 0(%rbp)
	addq	%rdi, %rdx
	movq	%rdx, %r15
	shrq	$51, %rdx
	addq	%rdx, %rsi
	movq	1088(%rsp), %rdx
	andq	%rbx, %r15
	movq	%r15, 8(%rbp)
	movq	1064(%rsp), %r15
	leaq	(%rdx,%rdx,8), %rax
	movq	%rsi, 16(%rbp)
	movq	1056(%rsp), %r14
	leaq	(%rdx,%rax,2), %rsi
	leaq	0(%r13,%r13,8), %rax
	leaq	0(%r13,%rax,2), %rcx
	leaq	(%r12,%r12,8), %rax
	leaq	(%r12,%rax,2), %rdi
	leaq	(%r15,%r15,8), %rax
	leaq	(%r15,%rax,2), %r9
	movq	%r9, %rax
	mulq	1048(%rsp)
	movq	%rax, %r10
	movq	%rdx, %r11
	movq	%rdi, %rax
	mulq	1040(%rsp)
	addq	%rax, %r10
	movq	%r14, %rax
	adcq	%rdx, %r11
	mulq	1016(%rsp)
	addq	%rax, %r10
	movq	%rcx, %rax
	adcq	%rdx, %r11
	mulq	1032(%rsp)
	addq	%rax, %r10
	movq	%rsi, %rax
	adcq	%rdx, %r11
	mulq	1024(%rsp)
	addq	%rax, %r10
	movq	%r14, %rax
	adcq	%rdx, %r11
	mulq	1024(%rsp)
	movq	%r10, 16(%rsp)
	movq	%rax, %r8
	movq	%rdx, %r9
	movq	%r15, %rax
	mulq	1016(%rsp)
	addq	%rax, %r8
	movq	%rdi, %rax
	adcq	%rdx, %r9
	mulq	1048(%rsp)
	addq	%rax, %r8
	movq	%rcx, %rax
	adcq	%rdx, %r9
	mulq	1040(%rsp)
	addq	%rax, %r8
	movq	%rsi, %rax
	adcq	%rdx, %r9
	mulq	1032(%rsp)
	addq	%r8, %rax
	adcq	%r9, %rdx
	shrdq	$51, %r11, %r10
	xorl	%r9d, %r9d
	addq	%r10, %rax
	adcq	%r9, %rdx
	movq	%rax, %r10
	movq	%r14, %rax
	movq	%rdx, %r11
	mulq	1032(%rsp)
	movq	%r10, 32(%rsp)
	movq	%r11, 40(%rsp)
	movq	%rax, %r8
	movq	%rdx, %r9
	movq	%r15, %rax
	mulq	1024(%rsp)
	addq	%rax, %r8
	movq	%r12, %rax
	adcq	%rdx, %r9
	mulq	1016(%rsp)
	addq	%rax, %r8
	movq	%rcx, %rax
	adcq	%rdx, %r9
	mulq	1048(%rsp)
	addq	%rax, %r8
	movq	%rsi, %rax
	adcq	%rdx, %r9
	mulq	1040(%rsp)
	addq	%r8, %rax
	adcq	%r9, %rdx
	movq	%r10, %r9
	shrdq	$51, %r11, %r9
	movq	%r9, %r10
	xorl	%r9d, %r9d
	addq	%r10, %rax
	adcq	%r9, %rdx
	movq	%rax, %r8
	movq	%r14, %rax
	movq	%rdx, %r9
	mulq	1040(%rsp)
	movq	%r8, 48(%rsp)
	movq	%r9, 56(%rsp)
	movq	%rax, %r10
	movq	%rdx, %r11
	movq	%r15, %rax
	mulq	1032(%rsp)
	addq	%rax, %r10
	movq	%r12, %rax
	adcq	%rdx, %r11
	mulq	1024(%rsp)
	addq	%rax, %r10
	movq	%r13, %rax
	adcq	%rdx, %r11
	mulq	1016(%rsp)
	addq	%rax, %r10
	movq	%rsi, %rax
	movq	%r8, %rsi
	adcq	%rdx, %r11
	mulq	1048(%rsp)
	addq	%r10, %rax
	adcq	%r11, %rdx
	shrdq	$51, %r9, %rsi
	xorl	%r11d, %r11d
	movq	%rsi, %r10
	addq	%rax, %r10
	movq	%r14, %rax
	adcq	%rdx, %r11
	mulq	1048(%rsp)
	movq	%rax, %r8
	movq	%rdx, %r9
	movq	%r15, %rax
	mulq	1040(%rsp)
	addq	%rax, %r8
	movq	%r12, %rax
	adcq	%rdx, %r9
	mulq	1032(%rsp)
	addq	%rax, %r8
	movq	%r13, %rax
	adcq	%rdx, %r9
	mulq	1024(%rsp)
	addq	%rax, %r8
	movq	1016(%rsp), %rax
	adcq	%rdx, %r9
	mulq	1088(%rsp)
	addq	%r8, %rax
	movq	%r10, %r8
	adcq	%r9, %rdx
	shrdq	$51, %r11, %r8
	xorl	%edi, %edi
	addq	%r8, %rax
	adcq	%rdi, %rdx
	movq	%rax, 64(%rsp)
	andq	%rbx, %r10
	movq	96(%rsp), %r11
	shrdq	$51, %rdx, %rax
	movq	%rdx, 72(%rsp)
	leaq	(%rax,%rax,8), %rdx
	movq	%r10, 64(%rbp)
	leaq	(%rax,%rdx,2), %rcx
	movq	16(%rsp), %rdx
	movq	64(%rsp), %rax
	andq	%rbx, %rdx
	andq	%rbx, %rax
	addq	%rdx, %rcx
	movq	32(%rsp), %rdx
	movq	%rax, 72(%rbp)
	movq	112(%rsp), %rax
	andq	%rbx, %rdx
	movq	%rdx, %rsi
	movq	%rcx, %rdx
	andq	%rbx, %rcx
	shrq	$51, %rdx
	movq	%rcx, 40(%rbp)
	addq	%rsi, %rdx
	movq	%rdx, %r9
	shrq	$51, %rdx
	andq	%rbx, %r9
	movq	%r9, 48(%rbp)
	movq	48(%rsp), %r9
	andq	%rbx, %r9
	movq	%r9, %rcx
	addq	%rdx, %rcx
	mulq	1088(%rsp)
	movq	%rcx, 56(%rbp)
	movq	80(%rsp), %rcx
	movq	%rax, %rsi
	movq	(%rsp), %rax
	movq	%rdx, %rdi
	mulq	%r13
	addq	%rax, %rsi
	movq	%r14, %rax
	adcq	%rdx, %rdi
	mulq	1096(%rsp)
	addq	%rax, %rsi
	movq	%r11, %rax
	adcq	%rdx, %rdi
	mulq	%r12
	movq	%rsi, %r8
	movq	%rdi, %r9
	addq	%rax, %r8
	movq	%rcx, %rax
	adcq	%rdx, %r9
	mulq	%r15
	movq	%r9, %r10
	movq	%r8, %r9
	addq	%rax, %r9
	movq	%r15, %rax
	adcq	%rdx, %r10
	mulq	1096(%rsp)
	movq	%r9, %r8
	movq	%rax, %rsi
	movq	%rdx, %rdi
	movq	%r14, %rax
	mulq	1104(%rsp)
	addq	%rax, %rsi
	movq	(%rsp), %rax
	movq	%r9, (%rsp)
	adcq	%rdx, %rdi
	mulq	1088(%rsp)
	addq	%rax, %rsi
	movq	%r11, %rax
	adcq	%rdx, %rdi
	mulq	%r13
	addq	%rax, %rsi
	movq	%rcx, %rax
	adcq	%rdx, %rdi
	mulq	%r12
	addq	%rsi, %rax
	adcq	%rdi, %rdx
	shrdq	$51, %r10, %r8
	xorl	%edi, %edi
	addq	%r8, %rax
	adcq	%rdi, %rdx
	movq	%rax, %rsi
	movq	%r12, %rax
	movq	%rdx, %rdi
	mulq	1096(%rsp)
	movq	%rsi, 16(%rsp)
	movq	%rdi, 24(%rsp)
	movq	%rax, %r8
	movq	%rdx, %r9
	movq	%r15, %rax
	mulq	1104(%rsp)
	addq	%rax, %r8
	movq	%r14, %rax
	adcq	%rdx, %r9
	mulq	1112(%rsp)
	addq	%rax, %r8
	movq	%r11, %rax
	adcq	%rdx, %r9
	mulq	1088(%rsp)
	addq	%rax, %r8
	movq	%rcx, %rax
	adcq	%rdx, %r9
	mulq	%r13
	addq	%r8, %rax
	movq	%rsi, %r8
	adcq	%r9, %rdx
	shrdq	$51, %rdi, %r8
	xorl	%r11d, %r11d
	movq	%r8, %r10
	addq	%rax, %r10
	movq	%r13, %rax
	adcq	%rdx, %r11
	mulq	1096(%rsp)
	movq	%r10, %rsi
	movq	%rax, %r8
	movq	%rdx, %r9
	movq	%r12, %rax
	mulq	1104(%rsp)
	addq	%rax, %r8
	movq	%r15, %rax
	adcq	%rdx, %r9
	mulq	1112(%rsp)
	addq	%rax, %r8
	movq	%r14, %rax
	adcq	%rdx, %r9
	mulq	1120(%rsp)
	addq	%rax, %r8
	movq	%rcx, %rax
	adcq	%rdx, %r9
	mulq	1088(%rsp)
	addq	%r8, %rax
	adcq	%r9, %rdx
	shrdq	$51, %r11, %rsi
	xorl	%edi, %edi
	addq	%rsi, %rax
	adcq	%rdi, %rdx
	movq	%rax, %r8
	movq	1088(%rsp), %rax
	movq	%rdx, %r9
	mulq	1096(%rsp)
	movq	%rax, %rsi
	movq	%rdx, %rdi
	movq	%r13, %rax
	mulq	1104(%rsp)
	addq	%rax, %rsi
	movq	%r12, %rax
	movq	%r8, %r12
	adcq	%rdx, %rdi
	mulq	1112(%rsp)
	addq	%rax, %rsi
	movq	%r15, %rax
	adcq	%rdx, %rdi
	mulq	1120(%rsp)
	addq	%rax, %rsi
	movq	%r14, %rax
	adcq	%rdx, %rdi
	mulq	1128(%rsp)
	addq	%rax, %rsi
	adcq	%rdx, %rdi
	shrdq	$51, %r9, %r12
	xorl	%edx, %edx
	addq	%r12, %rsi
	adcq	%rdx, %rdi
	movq	%rsi, %rax
	andq	%rbx, %rsi
	andq	%rbx, %r8
	shrdq	$51, %rdi, %rax
	movq	1048(%rsp), %rdi
	movq	%rsi, 112(%rbp)
	leaq	(%rax,%rax,8), %rdx
	movq	%r8, 104(%rbp)
	leaq	(%rax,%rdx,2), %rdx
	movq	(%rsp), %rax
	andq	%rbx, %rax
	addq	%rax, %rdx
	movq	16(%rsp), %rax
	movq	%rdx, %rcx
	andq	%rbx, %rdx
	andq	%rbx, %rax
	shrq	$51, %rcx
	movq	%rdx, 80(%rbp)
	addq	%rcx, %rax
	movq	%rax, %rdx
	shrq	$51, %rax
	andq	%rbx, %rdx
	movq	%rdx, 88(%rbp)
	movq	%r10, %rdx
	andq	%rbx, %rdx
	addq	%rax, %rdx
	movq	1048(%rsp), %rax
	movq	%rdx, 96(%rbp)
	movq	1024(%rsp), %rdx
	leaq	(%rax,%rax,8), %rax
	leaq	(%rdi,%rax,2), %rsi
	movq	1040(%rsp), %rax
	movq	1040(%rsp), %rdi
	leaq	(%rax,%rax,8), %rax
	leaq	(%rdi,%rax,2), %rcx
	movq	1032(%rsp), %rax
	movq	1032(%rsp), %rdi
	leaq	(%rax,%rax,8), %rax
	leaq	(%rdi,%rax,2), %rdi
	movq	1024(%rsp), %rax
	leaq	(%rax,%rax,8), %rax
	leaq	(%rdx,%rax,2), %r11
	movq	%r11, %rax
	mulq	1008(%rsp)
	movq	%rax, %r10
	movq	%rdx, %r11
	movq	%rdi, %rax
	mulq	1000(%rsp)
	addq	%rax, %r10
	movq	1016(%rsp), %rax
	adcq	%rdx, %r11
	mulq	976(%rsp)
	addq	%rax, %r10
	movq	%rcx, %rax
	adcq	%rdx, %r11
	mulq	992(%rsp)
	addq	%rax, %r10
	movq	%rsi, %rax
	adcq	%rdx, %r11
	mulq	984(%rsp)
	movq	%r10, %r14
	movq	%r11, %r15
	addq	%rax, %r14
	movq	1016(%rsp), %rax
	adcq	%rdx, %r15
	mulq	984(%rsp)
	movq	%r14, %r10
	movq	%rax, %r8
	movq	%rdx, %r9
	movq	1024(%rsp), %rax
	mulq	976(%rsp)
	addq	%rax, %r8
	movq	%rdi, %rax
	adcq	%rdx, %r9
	mulq	1008(%rsp)
	addq	%rax, %r8
	movq	%rcx, %rax
	adcq	%rdx, %r9
	mulq	1000(%rsp)
	addq	%rax, %r8
	movq	%rsi, %rax
	adcq	%rdx, %r9
	mulq	992(%rsp)
	addq	%r8, %rax
	adcq	%r9, %rdx
	shrdq	$51, %r15, %r10
	xorl	%r9d, %r9d
	addq	%r10, %rax
	adcq	%r9, %rdx
	movq	%rax, %r12
	movq	1016(%rsp), %rax
	movq	%rdx, %r13
	mulq	992(%rsp)
	movq	%r12, (%rsp)
	movq	%r13, 8(%rsp)
	movq	%rax, %r10
	movq	%rdx, %r11
	movq	1024(%rsp), %rax
	mulq	984(%rsp)
	addq	%rax, %r10
	movq	1032(%rsp), %rax
	adcq	%rdx, %r11
	mulq	976(%rsp)
	addq	%rax, %r10
	movq	%rcx, %rax
	adcq	%rdx, %r11
	mulq	1008(%rsp)
	movq	%rax, %r8
	movq	%rdx, %r9
	movq	%rsi, %rax
	addq	%r10, %r8
	movq	%r12, %r10
	adcq	%r11, %r9
	mulq	1000(%rsp)
	addq	%rax, %r8
	movq	1016(%rsp), %rax
	adcq	%rdx, %r9
	shrdq	$51, %r13, %r10
	xorl	%edx, %edx
	addq	%r10, %r8
	adcq	%rdx, %r9
	mulq	1000(%rsp)
	movq	%rax, %r12
	movq	%rdx, %r13
	movq	1024(%rsp), %rax
	mulq	992(%rsp)
	addq	%rax, %r12
	movq	1032(%rsp), %rax
	adcq	%rdx, %r13
	mulq	984(%rsp)
	addq	%rax, %r12
	movq	1040(%rsp), %rax
	adcq	%rdx, %r13
	mulq	976(%rsp)
	addq	%rax, %r12
	movq	%rsi, %rax
	movq	%r8, %rsi
	adcq	%rdx, %r13
	mulq	1008(%rsp)
	addq	%r12, %rax
	adcq	%r13, %rdx
	shrdq	$51, %r9, %rsi
	xorl	%r11d, %r11d
	movq	%rsi, %r10
	addq	%rax, %r10
	movq	1016(%rsp), %rax
	adcq	%rdx, %r11
	mulq	1008(%rsp)
	movq	%rax, %rsi
	movq	%rdx, %rdi
	movq	1024(%rsp), %rax
	mulq	1000(%rsp)
	addq	%rax, %rsi
	movq	1032(%rsp), %rax
	adcq	%rdx, %rdi
	mulq	992(%rsp)
	addq	%rax, %rsi
	movq	1040(%rsp), %rax
	adcq	%rdx, %rdi
	mulq	984(%rsp)
	addq	%rax, %rsi
	movq	1048(%rsp), %rax
	adcq	%rdx, %rdi
	mulq	976(%rsp)
	addq	%rax, %rsi
	movq	%r10, %rax
	adcq	%rdx, %rdi
	shrdq	$51, %r11, %rax
	xorl	%edx, %edx
	addq	%rax, %rsi
	adcq	%rdx, %rdi
	movq	%rsi, %rax
	andq	%rbx, %r14
	andq	%rbx, %r8
	shrdq	$51, %rdi, %rax
	andq	%rbx, %r10
	leaq	(%rax,%rax,8), %rdx
	leaq	(%rax,%rdx,2), %rdx
	movq	(%rsp), %rax
	addq	%r14, %rdx
	movq	%rdx, %rcx
	andq	%rbx, %rax
	andq	%rbx, %rdx
	shrq	$51, %rcx
	movq	%rdx, 120(%rbp)
	addq	%rcx, %rax
	movq	%r10, 144(%rbp)
	movq	%rax, %rdx
	shrq	$51, %rax
	movq	$0, (%rsp)
	andq	%rbx, %rdx
	addq	%r8, %rax
	andq	%rsi, %rbx
	movq	%rdx, 128(%rbp)
	movq	%rax, 136(%rbp)
	movq	%rbx, 152(%rbp)
	.p2align 4,,10
	.p2align 3
.L336:
	movq	(%rsp), %rax
	leaq	720(%rsp), %rdi
	movsbl	656(%rsp,%rax), %edx
	movl	%eax, %esi
	sarl	%esi
	call	table_select
	leaq	720(%rsp), %rdx
	movq	%rbp, %rsi
	leaq	976(%rsp), %rdi
	call	ge_madd
	movq	1128(%rsp), %rbx
	movq	1120(%rsp), %rdi
	movq	$0, 312(%rsp)
	movq	1112(%rsp), %rcx
	leaq	(%rbx,%rbx,8), %rax
	leaq	(%rbx,%rax,2), %rbx
	leaq	(%rdi,%rdi,8), %rax
	leaq	(%rdi,%rax,2), %rdi
	leaq	(%rcx,%rcx,8), %rax
	movq	%rbx, %r13
	leaq	(%rcx,%rax,2), %r14
	movq	1104(%rsp), %rcx
	movq	%rdi, 32(%rsp)
	movq	%r14, 96(%rsp)
	leaq	(%rcx,%rcx,8), %rax
	leaq	(%rcx,%rax,2), %rcx
	movq	%rcx, %rax
	mulq	1008(%rsp)
	movq	%rcx, 112(%rsp)
	movabsq	$2251799813685247, %rcx
	movq	%rax, %r8
	movq	%rdx, %r9
	movq	%r14, %rax
	mulq	1000(%rsp)
	addq	%rax, %r8
	movq	1096(%rsp), %rax
	adcq	%rdx, %r9
	mulq	976(%rsp)
	addq	%rax, %r8
	movq	%rdi, %rax
	adcq	%rdx, %r9
	mulq	992(%rsp)
	addq	%rax, %r8
	movq	%rbx, %rax
	adcq	%rdx, %r9
	mulq	984(%rsp)
	movq	%r8, %rbx
	movq	%r9, %rsi
	addq	%rax, %rbx
	movq	984(%rsp), %rax
	adcq	%rdx, %rsi
	mulq	1096(%rsp)
	movq	%rbx, 48(%rsp)
	movq	%rax, %r8
	movq	%rdx, %r9
	movq	1104(%rsp), %rax
	mulq	976(%rsp)
	addq	%rax, %r8
	movq	%r14, %rax
	adcq	%rdx, %r9
	mulq	1008(%rsp)
	addq	%rax, %r8
	movq	%rdi, %rax
	adcq	%rdx, %r9
	mulq	1000(%rsp)
	addq	%rax, %r8
	movq	%r13, %rax
	adcq	%rdx, %r9
	mulq	992(%rsp)
	movq	%rax, %r10
	movq	%rdx, %r11
	movq	%rbx, %rax
	movq	%r13, %rbx
	addq	%r8, %r10
	adcq	%r9, %r11
	shrdq	$51, %rsi, %rax
	movq	%rax, 304(%rsp)
	movq	992(%rsp), %rax
	addq	304(%rsp), %r10
	adcq	312(%rsp), %r11
	mulq	1096(%rsp)
	movq	%rax, %r8
	movq	%rdx, %r9
	movq	984(%rsp), %rax
	mulq	1104(%rsp)
	addq	%rax, %r8
	movq	1112(%rsp), %rax
	adcq	%rdx, %r9
	mulq	976(%rsp)
	addq	%rax, %r8
	movq	%rdi, %rax
	adcq	%rdx, %r9
	mulq	1008(%rsp)
	movq	%rbx, 16(%rsp)
	movq	$0, 328(%rsp)
	movq	$0, 344(%rsp)
	addq	%rax, %r8
	movq	%r13, %rax
	adcq	%rdx, %r9
	mulq	1000(%rsp)
	movq	%rax, %rsi
	movq	%rdx, %rdi
	movq	%r10, %rax
	addq	%r8, %rsi
	adcq	%r9, %rdi
	shrdq	$51, %r11, %rax
	movq	%rax, 320(%rsp)
	movq	1000(%rsp), %rax
	addq	320(%rsp), %rsi
	adcq	328(%rsp), %rdi
	mulq	1096(%rsp)
	movq	%rsi, 64(%rsp)
	movq	%rax, %r12
	movq	%rdx, %r13
	movq	992(%rsp), %rax
	mulq	1104(%rsp)
	addq	%rax, %r12
	movq	984(%rsp), %rax
	adcq	%rdx, %r13
	mulq	1112(%rsp)
	addq	%rax, %r12
	movq	1120(%rsp), %rax
	adcq	%rdx, %r13
	mulq	976(%rsp)
	addq	%rax, %r12
	movq	%rbx, %rax
	adcq	%rdx, %r13
	mulq	1008(%rsp)
	movq	%rax, %r8
	movq	%rdx, %r9
	movq	%rsi, %rax
	addq	%r12, %r8
	adcq	%r13, %r9
	shrdq	$51, %rdi, %rax
	movq	%rax, 336(%rsp)
	movq	1008(%rsp), %rax
	addq	336(%rsp), %r8
	adcq	344(%rsp), %r9
	mulq	1096(%rsp)
	movq	%r8, %r12
	movq	%rax, %r14
	movq	%rdx, %r15
	movq	1000(%rsp), %rax
	mulq	1104(%rsp)
	addq	%rax, %r14
	movq	992(%rsp), %rax
	adcq	%rdx, %r15
	mulq	1112(%rsp)
	addq	%rax, %r14
	movq	984(%rsp), %rax
	adcq	%rdx, %r15
	mulq	1120(%rsp)
	addq	%rax, %r14
	movq	976(%rsp), %rax
	adcq	%rdx, %r15
	mulq	1128(%rsp)
	movq	48(%rsp), %rbx
	movq	$0, 360(%rsp)
	movq	1072(%rsp), %rdi
	movq	$0, 376(%rsp)
	addq	%r14, %rax
	adcq	%r15, %rdx
	shrdq	$51, %r9, %r12
	movq	%r12, 352(%rsp)
	addq	352(%rsp), %rax
	adcq	360(%rsp), %rdx
	movq	%rax, %r14
	andq	%rcx, %rbx
	andq	%rcx, %r10
	shrdq	$51, %rdx, %rax
	andq	%rcx, %r8
	leaq	(%rax,%rax,8), %rdx
	movq	%r8, 24(%rbp)
	leaq	(%rax,%rdx,2), %rdx
	movq	%r14, %rax
	addq	%rdx, %rbx
	andq	%rcx, %rax
	movq	%rbx, %rdx
	movq	%rax, 32(%rbp)
	andq	%rcx, %rbx
	shrq	$51, %rdx
	movq	%rbx, 0(%rbp)
	movq	1024(%rsp), %rbx
	addq	%r10, %rdx
	movq	%rdx, %rsi
	shrq	$51, %rdx
	andq	%rcx, %rsi
	movq	%rsi, 8(%rbp)
	movq	64(%rsp), %rsi
	andq	%rcx, %rsi
	addq	%rdx, %rsi
	movq	%rsi, 16(%rbp)
	movq	1088(%rsp), %rsi
	leaq	(%rsi,%rsi,8), %rax
	leaq	(%rsi,%rax,2), %r8
	movq	1080(%rsp), %rsi
	leaq	(%rsi,%rsi,8), %rax
	leaq	(%rsi,%rax,2), %r9
	movq	1064(%rsp), %rsi
	leaq	(%rdi,%rdi,8), %rax
	leaq	(%rdi,%rax,2), %r10
	leaq	(%rsi,%rsi,8), %rax
	leaq	(%rsi,%rax,2), %r11
	movq	%r11, %rax
	mulq	1048(%rsp)
	movq	%rax, %r14
	movq	%rdx, %r15
	movq	%r10, %rax
	mulq	1040(%rsp)
	addq	%rax, %r14
	movq	1056(%rsp), %rax
	adcq	%rdx, %r15
	mulq	1016(%rsp)
	addq	%rax, %r14
	movq	%r9, %rax
	adcq	%rdx, %r15
	mulq	1032(%rsp)
	addq	%rax, %r14
	movq	%r8, %rax
	adcq	%rdx, %r15
	mulq	%rbx
	addq	%rax, %r14
	movq	%rbx, %rax
	adcq	%rdx, %r15
	mulq	1056(%rsp)
	movq	%r14, %r12
	movq	%r15, %r13
	movq	%r12, 48(%rsp)
	movq	%rax, %r14
	movq	%rdx, %r15
	movq	%rsi, %rax
	mulq	1016(%rsp)
	addq	%rax, %r14
	movq	%r10, %rax
	adcq	%rdx, %r15
	mulq	1048(%rsp)
	movq	%rax, %r10
	movq	%rdx, %r11
	movq	%r9, %rax
	addq	%r14, %r10
	adcq	%r15, %r11
	mulq	1040(%rsp)
	addq	%rax, %r10
	movq	%r8, %rax
	adcq	%rdx, %r11
	mulq	1032(%rsp)
	addq	%r10, %rax
	movq	%r12, %r10
	adcq	%r11, %rdx
	shrdq	$51, %r13, %r10
	movq	%r10, 368(%rsp)
	addq	368(%rsp), %rax
	adcq	376(%rsp), %rdx
	movq	%rax, %r14
	movq	1032(%rsp), %rax
	movq	$0, 392(%rsp)
	movq	%rdx, %r15
	mulq	1056(%rsp)
	movq	%r14, 64(%rsp)
	movq	%r15, 72(%rsp)
	movq	$0, 408(%rsp)
	movq	%rax, %r10
	movq	%rbx, %rax
	movq	%rdx, %r11
	mulq	%rsi
	addq	%rax, %r10
	movq	%rdi, %rax
	adcq	%rdx, %r11
	mulq	1016(%rsp)
	addq	%rax, %r10
	movq	%r9, %rax
	adcq	%rdx, %r11
	mulq	1048(%rsp)
	addq	%rax, %r10
	movq	%r8, %rax
	adcq	%rdx, %r11
	mulq	1040(%rsp)
	addq	%r10, %rax
	adcq	%r11, %rdx
	movq	%r14, %r11
	shrdq	$51, %r15, %r11
	movq	%r11, 384(%rsp)
	addq	384(%rsp), %rax
	adcq	392(%rsp), %rdx
	movq	%rax, %r14
	movq	1040(%rsp), %rax
	movq	%rdx, %r15
	mulq	1056(%rsp)
	movq	%rax, %r12
	movq	%rdx, %r13
	movq	%rsi, %rax
	mulq	1032(%rsp)
	addq	%rax, %r12
	movq	%rbx, %rax
	adcq	%rdx, %r13
	mulq	%rdi
	addq	%rax, %r12
	movq	1080(%rsp), %rax
	adcq	%rdx, %r13
	mulq	1016(%rsp)
	addq	%rax, %r12
	movq	%r8, %rax
	adcq	%rdx, %r13
	mulq	1048(%rsp)
	movq	%rax, %r8
	movq	%rdx, %r9
	movq	%r14, %rax
	addq	%r12, %r8
	adcq	%r13, %r9
	shrdq	$51, %r15, %rax
	movq	%rax, 400(%rsp)
	movq	%r9, %r10
	movq	1048(%rsp), %rax
	movq	%r8, %r9
	addq	400(%rsp), %r9
	adcq	408(%rsp), %r10
	mulq	1056(%rsp)
	movq	%r9, %r8
	movq	%rax, %r12
	movq	%rdx, %r13
	movq	%rsi, %rax
	mulq	1040(%rsp)
	addq	%rax, %r12
	movq	%rdi, %rax
	adcq	%rdx, %r13
	mulq	1032(%rsp)
	addq	%rax, %r12
	movq	%rbx, %rax
	adcq	%rdx, %r13
	mulq	1080(%rsp)
	addq	%rax, %r12
	movq	1016(%rsp), %rax
	adcq	%rdx, %r13
	mulq	1088(%rsp)
	movq	%r9, 80(%rsp)
	movq	%r10, 88(%rsp)
	movq	32(%rsp), %r15
	movq	$0, 424(%rsp)
	movq	$0, 440(%rsp)
	addq	%r12, %rax
	adcq	%r13, %rdx
	shrdq	$51, %r10, %r8
	movq	64(%rsp), %r10
	movq	16(%rsp), %r13
	movq	%r8, 416(%rsp)
	addq	416(%rsp), %rax
	adcq	424(%rsp), %rdx
	movq	%rax, %r12
	andq	%rcx, %r10
	movq	80(%rsp), %r8
	shrdq	$51, %rdx, %rax
	leaq	(%rax,%rax,8), %rdx
	andq	%rcx, %r8
	leaq	(%rax,%rdx,2), %r9
	movq	48(%rsp), %rdx
	movq	%r12, %rax
	movq	%r8, 64(%rbp)
	andq	%rcx, %rax
	andq	%rcx, %rdx
	movq	%rax, 72(%rbp)
	movq	112(%rsp), %rax
	addq	%rdx, %r9
	movq	%r9, %rdx
	andq	%rcx, %r9
	shrq	$51, %rdx
	movq	%r9, 40(%rbp)
	addq	%r10, %rdx
	movq	%rdx, %r9
	shrq	$51, %rdx
	andq	%rcx, %r9
	movq	%r9, 48(%rbp)
	movq	%r14, %r9
	movq	96(%rsp), %r14
	andq	%rcx, %r9
	addq	%rdx, %r9
	mulq	1088(%rsp)
	movq	%r9, 56(%rbp)
	movq	%rax, %r8
	movq	%rdx, %r9
	movq	%r14, %rax
	mulq	1080(%rsp)
	addq	%rax, %r8
	movq	1056(%rsp), %rax
	adcq	%rdx, %r9
	mulq	1096(%rsp)
	addq	%rax, %r8
	movq	%r15, %rax
	adcq	%rdx, %r9
	mulq	%rdi
	movq	%r8, %r10
	movq	%r9, %r11
	addq	%rax, %r10
	movq	%r13, %rax
	adcq	%rdx, %r11
	mulq	%rsi
	movq	%r11, %r12
	movq	%r10, %r11
	addq	%rax, %r11
	movq	%rsi, %rax
	adcq	%rdx, %r12
	mulq	1096(%rsp)
	movq	%r11, 48(%rsp)
	movq	%r12, 56(%rsp)
	movq	%rax, %r8
	movq	%rdx, %r9
	movq	1056(%rsp), %rax
	mulq	1104(%rsp)
	addq	%rax, %r8
	movq	%r14, %rax
	adcq	%rdx, %r9
	mulq	1088(%rsp)
	addq	%rax, %r8
	movq	%r15, %rax
	adcq	%rdx, %r9
	mulq	1080(%rsp)
	addq	%rax, %r8
	movq	%r13, %rax
	adcq	%rdx, %r9
	mulq	%rdi
	addq	%r8, %rax
	movq	%r11, %r8
	adcq	%r9, %rdx
	shrdq	$51, %r12, %r8
	movq	%r8, 432(%rsp)
	addq	432(%rsp), %rax
	adcq	440(%rsp), %rdx
	movq	%rax, %r14
	movq	%rdi, %rax
	movq	$0, 456(%rsp)
	movq	%rdx, %r15
	movq	%r14, %r9
	movq	$0, 472(%rsp)
	mulq	1096(%rsp)
	movq	%rax, %r10
	movq	%rdx, %r11
	movq	%rsi, %rax
	mulq	1104(%rsp)
	addq	%rax, %r10
	movq	1056(%rsp), %rax
	adcq	%rdx, %r11
	mulq	1112(%rsp)
	addq	%rax, %r10
	movq	32(%rsp), %rax
	adcq	%rdx, %r11
	mulq	1088(%rsp)
	addq	%rax, %r10
	movq	%r13, %rax
	adcq	%rdx, %r11
	mulq	1080(%rsp)
	addq	%r10, %rax
	adcq	%r11, %rdx
	shrdq	$51, %r15, %r9
	movq	%r9, 448(%rsp)
	addq	448(%rsp), %rax
	adcq	456(%rsp), %rdx
	movq	%rax, %r12
	movq	1080(%rsp), %rax
	movq	%rdx, %r13
	mulq	1096(%rsp)
	movq	%rax, %r8
	movq	%rdx, %r9
	movq	%rdi, %rax
	mulq	1104(%rsp)
	addq	%rax, %r8
	movq	%rsi, %rax
	adcq	%rdx, %r9
	mulq	1112(%rsp)
	addq	%rax, %r8
	movq	1056(%rsp), %rax
	adcq	%rdx, %r9
	mulq	1120(%rsp)
	movq	%rax, %r10
	movq	%rdx, %r11
	movq	16(%rsp), %rax
	addq	%r8, %r10
	adcq	%r9, %r11
	mulq	1088(%rsp)
	addq	%rax, %r10
	movq	%r12, %rax
	adcq	%rdx, %r11
	shrdq	$51, %r13, %rax
	movq	%rax, 464(%rsp)
	movq	1088(%rsp), %rax
	addq	464(%rsp), %r10
	adcq	472(%rsp), %r11
	mulq	1096(%rsp)
	movq	%rax, %r8
	movq	%rdx, %r9
	movq	1080(%rsp), %rax
	mulq	1104(%rsp)
	addq	%rax, %r8
	movq	%rdi, %rax
	adcq	%rdx, %r9
	mulq	1112(%rsp)
	addq	%rax, %r8
	movq	%rsi, %rax
	adcq	%rdx, %r9
	mulq	1120(%rsp)
	movq	$0, 488(%rsp)
	movq	%rax, %rsi
	movq	%rdx, %rdi
	movq	1056(%rsp), %rax
	addq	%r8, %rsi
	adcq	%r9, %rdi
	mulq	1128(%rsp)
	addq	%rsi, %rax
	movq	%r10, %rsi
	adcq	%rdi, %rdx
	shrdq	$51, %r11, %rsi
	movq	1048(%rsp), %rdi
	movq	%rsi, 480(%rsp)
	addq	480(%rsp), %rax
	adcq	488(%rsp), %rdx
	movq	%rax, %r8
	andq	%rcx, %r14
	andq	%rcx, %r10
	shrdq	$51, %rdx, %rax
	movq	%r10, 104(%rbp)
	leaq	(%rax,%rax,8), %rdx
	leaq	(%rax,%rdx,2), %rsi
	movq	48(%rsp), %rdx
	movq	%r8, %rax
	andq	%rcx, %rax
	andq	%rcx, %rdx
	movq	%rax, 112(%rbp)
	leaq	(%rdi,%rdi,8), %rax
	addq	%rdx, %rsi
	movq	%rsi, %rdx
	andq	%rcx, %rsi
	shrq	$51, %rdx
	movq	%rsi, 80(%rbp)
	addq	%r14, %rdx
	movq	%rdx, %rsi
	shrq	$51, %rdx
	andq	%rcx, %rsi
	movq	%rsi, 88(%rbp)
	movq	%r12, %rsi
	andq	%rcx, %rsi
	addq	%rdx, %rsi
	movq	%rsi, 96(%rbp)
	leaq	(%rdi,%rax,2), %rsi
	movq	1040(%rsp), %rdi
	leaq	(%rdi,%rdi,8), %rax
	leaq	(%rdi,%rax,2), %r8
	movq	1032(%rsp), %rdi
	leaq	(%rdi,%rdi,8), %rax
	leaq	(%rdi,%rax,2), %rdi
	leaq	(%rbx,%rbx,8), %rax
	leaq	(%rbx,%rax,2), %r11
	movq	%r11, %rax
	mulq	1008(%rsp)
	movq	%rax, %r12
	movq	%rdx, %r13
	movq	%rdi, %rax
	mulq	1000(%rsp)
	addq	%rax, %r12
	movq	1016(%rsp), %rax
	adcq	%rdx, %r13
	mulq	976(%rsp)
	addq	%rax, %r12
	movq	%r8, %rax
	adcq	%rdx, %r13
	mulq	992(%rsp)
	addq	%rax, %r12
	movq	%rsi, %rax
	adcq	%rdx, %r13
	mulq	984(%rsp)
	movq	%r12, %r14
	movq	%r13, %r15
	addq	%rax, %r14
	movq	1016(%rsp), %rax
	adcq	%rdx, %r15
	mulq	984(%rsp)
	movq	%r14, 16(%rsp)
	movq	%r15, 24(%rsp)
	movq	%rax, %r10
	movq	%rdx, %r11
	movq	%rbx, %rax
	mulq	976(%rsp)
	addq	%rax, %r10
	movq	%rdi, %rax
	adcq	%rdx, %r11
	mulq	1008(%rsp)
	addq	%rax, %r10
	movq	%r8, %rax
	adcq	%rdx, %r11
	mulq	1000(%rsp)
	addq	%rax, %r10
	movq	%rsi, %rax
	adcq	%rdx, %r11
	mulq	992(%rsp)
	addq	%r10, %rax
	movq	%r14, %r10
	adcq	%r11, %rdx
	shrdq	$51, %r15, %r10
	movq	%r10, 496(%rsp)
	movq	$0, 504(%rsp)
	addq	496(%rsp), %rax
	adcq	504(%rsp), %rdx
	movq	%rax, %r14
	movq	1016(%rsp), %rax
	movq	$0, 520(%rsp)
	movq	$0, 536(%rsp)
	movq	%rdx, %r15
	mulq	992(%rsp)
	movq	%rax, %r12
	movq	%rdx, %r13
	movq	%rbx, %rax
	mulq	984(%rsp)
	addq	%rax, %r12
	movq	1032(%rsp), %rax
	adcq	%rdx, %r13
	mulq	976(%rsp)
	addq	%rax, %r12
	movq	%r8, %rax
	adcq	%rdx, %r13
	mulq	1008(%rsp)
	movq	%rax, %r8
	movq	%rdx, %r9
	movq	%rsi, %rax
	addq	%r12, %r8
	adcq	%r13, %r9
	mulq	1000(%rsp)
	movq	%rax, %r10
	movq	%rdx, %r11
	movq	%r14, %rax
	addq	%r8, %r10
	adcq	%r9, %r11
	shrdq	$51, %r15, %rax
	movq	%rax, 512(%rsp)
	movq	1016(%rsp), %rax
	addq	512(%rsp), %r10
	adcq	520(%rsp), %r11
	mulq	1000(%rsp)
	movq	%rax, %r12
	movq	%rdx, %r13
	movq	%rbx, %rax
	mulq	992(%rsp)
	addq	%rax, %r12
	movq	1032(%rsp), %rax
	adcq	%rdx, %r13
	mulq	984(%rsp)
	addq	%rax, %r12
	movq	1040(%rsp), %rax
	adcq	%rdx, %r13
	mulq	976(%rsp)
	addq	%rax, %r12
	movq	%rsi, %rax
	adcq	%rdx, %r13
	mulq	1008(%rsp)
	movq	%rax, %rsi
	movq	%rdx, %rdi
	movq	%r10, %rax
	addq	%r12, %rsi
	adcq	%r13, %rdi
	shrdq	$51, %r11, %rax
	movq	%rax, 528(%rsp)
	movq	1016(%rsp), %rax
	addq	528(%rsp), %rsi
	adcq	536(%rsp), %rdi
	mulq	1008(%rsp)
	movq	%rsi, %r12
	movq	%rax, %r8
	movq	%rdx, %r9
	movq	%rbx, %rax
	mulq	1000(%rsp)
	addq	%rax, %r8
	movq	1032(%rsp), %rax
	adcq	%rdx, %r9
	mulq	992(%rsp)
	movq	$0, 552(%rsp)
	addq	%rax, %r8
	movq	1040(%rsp), %rax
	adcq	%rdx, %r9
	mulq	984(%rsp)
	addq	%rax, %r8
	movq	1048(%rsp), %rax
	adcq	%rdx, %r9
	mulq	976(%rsp)
	addq	%r8, %rax
	adcq	%r9, %rdx
	shrdq	$51, %rdi, %rsi
	movq	16(%rsp), %rdi
	movq	%rsi, 544(%rsp)
	addq	544(%rsp), %rax
	movq	%r12, %rsi
	adcq	552(%rsp), %rdx
	movq	%rax, 32(%rsp)
	andq	%rcx, %rdi
	andq	%rcx, %r14
	shrdq	$51, %rdx, %rax
	movq	%rdx, 40(%rsp)
	andq	%rcx, %r10
	andq	%rcx, %rsi
	leaq	(%rax,%rax,8), %rdx
	addq	$2, (%rsp)
	leaq	(%rax,%rdx,2), %rdx
	movq	32(%rsp), %rax
	movq	%rsi, 144(%rbp)
	addq	%rdi, %rdx
	movq	%rdx, %rdi
	andq	%rcx, %rax
	andq	%rcx, %rdx
	shrq	$51, %rdi
	movq	%rdx, 120(%rbp)
	addq	%rdi, %r14
	movq	%rax, 152(%rbp)
	movq	(%rsp), %rax
	movq	%r14, %rdx
	shrq	$51, %r14
	andq	%rcx, %rdx
	addq	%r14, %r10
	movq	%rdx, 128(%rbp)
	movq	%r10, 136(%rbp)
	cmpq	$64, %rax
	jne	.L336
	addq	$1144, %rsp
	.cfi_def_cfa_offset 56
	popq	%rbx
	.cfi_def_cfa_offset 48
	popq	%rbp
	.cfi_def_cfa_offset 40
	popq	%r12
	.cfi_def_cfa_offset 32
	popq	%r13
	.cfi_def_cfa_offset 24
	popq	%r14
	.cfi_def_cfa_offset 16
	popq	%r15
	.cfi_def_cfa_offset 8
	ret
	.cfi_endproc
.LFE83:
	.size	x25519_ge_scalarmult_base, .-x25519_ge_scalarmult_base
	.p2align 4
	.globl	ED25519_sign
	.type	ED25519_sign, @function
ED25519_sign:
.LFB85:
	.cfi_startproc
	pushq	%r15
	.cfi_def_cfa_offset 16
	.cfi_offset 15, -16
	movq	%rsi, %r15
	pushq	%r14
	.cfi_def_cfa_offset 24
	.cfi_offset 14, -24
	movq	%rdx, %r14
	pushq	%r13
	.cfi_def_cfa_offset 32
	.cfi_offset 13, -32
	pushq	%r12
	.cfi_def_cfa_offset 40
	.cfi_offset 12, -40
	pushq	%rbp
	.cfi_def_cfa_offset 48
	.cfi_offset 6, -48
	pushq	%rbx
	.cfi_def_cfa_offset 56
	.cfi_offset 3, -56
	movabsq	$274877906976, %rbx
	subq	$952, %rsp
	.cfi_def_cfa_offset 1008
	movdqu	16(%rcx), %xmm7
	movdqu	(%rcx), %xmm5
	movdqa	.LC0(%rip), %xmm0
	movdqa	.LC1(%rip), %xmm1
	movq	%rdi, 224(%rsp)
	leaq	368(%rsp), %rdi
	movdqa	.LC2(%rip), %xmm2
	movdqa	.LC3(%rip), %xmm3
	movq	%rsi, 232(%rsp)
	movl	$64, %esi
	movdqa	.LC8(%rip), %xmm4
	movq	%rdx, 240(%rsp)
	leaq	720(%rsp), %rdx
	movq	%rcx, 248(%rsp)
	movq	%rbx, 928(%rsp)
	movaps	%xmm0, 720(%rsp)
	movaps	%xmm1, 736(%rsp)
	movaps	%xmm2, 752(%rsp)
	movaps	%xmm3, 768(%rsp)
	movaps	%xmm4, 784(%rsp)
	movaps	%xmm5, 800(%rsp)
	movaps	%xmm7, (%rsp)
	movaps	%xmm7, 816(%rsp)
	call	sha512_final_impl
	xorl	%eax, %eax
	movl	$27, %ecx
	leaq	720(%rsp), %rdi
	rep stosq
	leaq	720(%rsp), %rax
	movzbl	399(%rsp), %eax
	movdqa	.LC0(%rip), %xmm1
	movq	%r14, %rdx
	movq	%r15, %rsi
	movdqa	.LC1(%rip), %xmm2
	movdqa	.LC2(%rip), %xmm3
	leaq	720(%rsp), %rdi
	movq	%rbx, 928(%rsp)
	movdqa	.LC3(%rip), %xmm4
	andl	$63, %eax
	movdqa	.LC8(%rip), %xmm5
	movaps	%xmm1, 720(%rsp)
	movdqa	400(%rsp), %xmm6
	orl	$64, %eax
	movdqa	416(%rsp), %xmm7
	movaps	%xmm2, 736(%rsp)
	andb	$-8, 368(%rsp)
	movaps	%xmm3, 752(%rsp)
	movaps	%xmm4, 768(%rsp)
	movaps	%xmm5, 784(%rsp)
	movaps	%xmm6, 800(%rsp)
	movaps	%xmm7, 816(%rsp)
	movb	%al, 399(%rsp)
	call	SHA512_Update
	movl	932(%rsp), %esi
	leaq	720(%rsp), %rdx
	leaq	432(%rsp), %rdi
	call	sha512_final_impl
	leaq	432(%rsp), %rdi
	call	x25519_sc_reduce
	leaq	432(%rsp), %rsi
	leaq	560(%rsp), %rdi
	call	x25519_ge_scalarmult_base
	movq	672(%rsp), %rax
	movq	672(%rsp), %rbx
	movq	664(%rsp), %rdx
	leaq	(%rax,%rax,8), %rax
	leaq	(%rbx,%rax,2), %rbx
	movq	664(%rsp), %rax
	leaq	(%rbx,%rbx), %rdi
	leaq	(%rax,%rax), %rsi
	movq	656(%rsp), %rax
	leaq	(%rax,%rax), %rcx
	movq	664(%rsp), %rax
	leaq	(%rax,%rax,8), %rax
	leaq	(%rdx,%rax,2), %r8
	leaq	(%r8,%r8), %r11
	movq	%r11, %rax
	mulq	656(%rsp)
	movq	%rax, %r12
	movq	%rdx, %r13
	movq	%rdi, %rax
	mulq	648(%rsp)
	addq	%rax, %r12
	movq	640(%rsp), %rax
	adcq	%rdx, %r13
	mulq	%rax
	addq	%rax, %r12
	movq	%r8, %rax
	adcq	%rdx, %r13
	mulq	664(%rsp)
	movq	%r12, %r10
	movq	%rax, %r8
	movq	%rdx, %r9
	movq	%rdi, %rax
	mulq	656(%rsp)
	addq	%rax, %r8
	movq	648(%rsp), %rax
	adcq	%rdx, %r9
	addq	%rax, %rax
	mulq	640(%rsp)
	addq	%r8, %rax
	adcq	%r9, %rdx
	shrdq	$51, %r13, %r10
	xorl	%r15d, %r15d
	movq	%r10, %r14
	addq	%rax, %r14
	movq	%rdi, %rax
	adcq	%rdx, %r15
	mulq	664(%rsp)
	movq	%r14, %r10
	movq	%rax, %r8
	movq	%rdx, %r9
	movq	%rcx, %rax
	mulq	640(%rsp)
	addq	%rax, %r8
	movq	648(%rsp), %rax
	adcq	%rdx, %r9
	mulq	%rax
	addq	%r8, %rax
	adcq	%r9, %rdx
	shrdq	$51, %r15, %r10
	xorl	%r9d, %r9d
	addq	%r10, %rax
	adcq	%r9, %rdx
	movq	%rax, %rdi
	movq	%rbx, %rax
	movq	%rdx, %rbp
	mulq	672(%rsp)
	movq	%rdi, (%rsp)
	movq	%rax, %r10
	movq	%rdx, %r11
	movq	%rcx, %rax
	movq	%rdi, %rcx
	mulq	648(%rsp)
	movq	%rax, %r8
	movq	%rdx, %r9
	movq	%rsi, %rax
	addq	%r10, %r8
	adcq	%r11, %r9
	mulq	640(%rsp)
	addq	%rax, %r8
	movq	672(%rsp), %rax
	adcq	%rdx, %r9
	shrdq	$51, %rbp, %rcx
	xorl	%edx, %edx
	leaq	(%rax,%rax), %rbx
	addq	%rcx, %r8
	movabsq	$2251799813685247, %rcx
	adcq	%rdx, %r9
	movq	%rbx, %rax
	movq	%r8, %rbp
	mulq	640(%rsp)
	andq	%rcx, %rbp
	movq	%rax, %r10
	movq	%rdx, %r11
	movq	%rsi, %rax
	mulq	648(%rsp)
	movq	%rax, %rsi
	movq	656(%rsp), %rax
	movq	%rdx, %rdi
	addq	%r10, %rsi
	adcq	%r11, %rdi
	mulq	%rax
	addq	%rax, %rsi
	adcq	%rdx, %rdi
	shrdq	$51, %r9, %r8
	xorl	%edx, %edx
	leaq	(%rbp,%rbp), %r9
	addq	%r8, %rsi
	adcq	%rdx, %rdi
	movq	%rsi, %r11
	andq	%rcx, %r12
	shrdq	$51, %rdi, %rsi
	andq	%rcx, %r11
	leaq	(%rsi,%rsi,8), %rax
	movq	%r11, 64(%rsp)
	leaq	(%rsi,%rax,2), %rdx
	movq	%r14, %rax
	addq	%r12, %rdx
	andq	%rcx, %rax
	movq	%rdx, %rbx
	shrq	$51, %rdx
	addq	%rdx, %rax
	movq	(%rsp), %rdx
	andq	%rcx, %rbx
	movq	%rax, %r14
	shrq	$51, %rax
	andq	%rcx, %rdx
	andq	%rcx, %r14
	leaq	(%rdx,%rax), %r15
	leaq	(%r11,%r11,8), %rax
	movq	%r14, %r10
	leaq	(%r11,%rax,2), %r8
	movq	%rbx, %rax
	movq	%rbx, %r11
	movq	%r15, 16(%rsp)
	mulq	%rbx
	leaq	(%r8,%r8), %rdi
	movq	%r10, 80(%rsp)
	leaq	(%r15,%r15), %rsi
	movq	%r11, 32(%rsp)
	movq	%rax, %r12
	movq	%r14, %rax
	movq	%rdx, %r13
	mulq	%rdi
	addq	%rax, %r12
	leaq	0(%rbp,%rbp,8), %rax
	leaq	0(%rbp,%rax,2), %rbx
	adcq	%rdx, %r13
	movq	%r12, %r14
	leaq	(%rbx,%rbx), %rax
	mulq	%r15
	movq	%r13, %r15
	leaq	(%r10,%r10), %r13
	addq	%rax, %r14
	movq	%r13, %rax
	adcq	%rdx, %r15
	mulq	%r11
	movq	%rax, %r12
	movq	16(%rsp), %rax
	movq	%rdx, %r13
	mulq	%rdi
	addq	%rax, %r12
	movq	%rbx, %rax
	movq	32(%rsp), %rbx
	adcq	%rdx, %r13
	mulq	%rbp
	addq	%r12, %rax
	movq	%r14, %r12
	adcq	%r13, %rdx
	movq	%r15, %r13
	shrdq	$51, %r15, %r12
	shrq	$51, %r13
	addq	%rax, %r12
	movq	%r10, %rax
	adcq	%rdx, %r13
	mulq	%r10
	movq	%rax, %r10
	movq	%rdi, %rax
	movq	%rdx, %r11
	mulq	%rbp
	addq	%rax, %r10
	movq	%rbx, %rax
	adcq	%rdx, %r11
	mulq	%rsi
	addq	%r10, %rax
	movq	%r12, %r10
	adcq	%r11, %rdx
	shrdq	$51, %r13, %r10
	movq	%r13, %r11
	shrq	$51, %r11
	addq	%r10, %rax
	adcq	%r11, %rdx
	movq	%rax, (%rsp)
	movq	%r8, %rax
	movq	%rdx, 8(%rsp)
	mulq	64(%rsp)
	movq	%rax, %r10
	movq	%rbx, %rax
	movq	%rdx, %r11
	mulq	%r9
	addq	%rax, %r10
	movq	%rsi, %rax
	adcq	%rdx, %r11
	mulq	80(%rsp)
	movq	%rax, %rsi
	movq	%rdx, %rdi
	movq	(%rsp), %rax
	movq	8(%rsp), %rdx
	addq	%r10, %rsi
	adcq	%r11, %rdi
	movq	64(%rsp), %r11
	shrdq	$51, %rdx, %rax
	shrq	$51, %rdx
	addq	%rax, %rsi
	leaq	(%r11,%r11), %r10
	adcq	%rdx, %rdi
	movq	%rsi, %r8
	movq	%r10, %rax
	andq	%rcx, %r8
	mulq	%rbx
	movq	%rax, %r10
	movq	%rdx, %r11
	movq	%r9, %rax
	movq	16(%rsp), %r9
	mulq	80(%rsp)
	addq	%rax, %r10
	movq	%r9, %rax
	adcq	%rdx, %r11
	mulq	%r9
	addq	%r10, %rax
	adcq	%r11, %rdx
	shrdq	$51, %rdi, %rsi
	shrq	$51, %rdi
	addq	%rsi, %rax
	adcq	%rdi, %rdx
	movq	%rax, %rsi
	andq	%rcx, %r14
	shrdq	$51, %rdx, %rax
	andq	%rcx, %rsi
	leaq	(%rax,%rax,8), %rdx
	movq	%rsi, %rbx
	movq	%r12, %rsi
	leaq	(%rax,%rdx,2), %rdx
	andq	%rcx, %rsi
	addq	%r14, %rdx
	movq	%rsi, %rax
	movq	%rdx, %rdi
	shrq	$51, %rdx
	addq	%rdx, %rax
	movq	(%rsp), %rdx
	andq	%rcx, %rdi
	movq	%rax, %rsi
	shrq	$51, %rax
	andq	%rcx, %rdx
	andq	%rcx, %rsi
	leaq	(%rdx,%rax), %r14
	leaq	(%rbx,%rbx,8), %rax
	leaq	(%rbx,%rax,2), %r15
	leaq	(%r8,%r8), %rax
	leaq	(%r15,%r15), %r9
	movq	%rax, (%rsp)
	leaq	(%r14,%r14), %rdx
	movq	%r9, %rax
	movq	%rdx, %r11
	mulq	%rsi
	movq	%r11, 96(%rsp)
	movq	%rax, %r12
	movq	%rdi, %rax
	movq	%rdx, %r13
	mulq	%rdi
	addq	%rax, %r12
	leaq	(%r8,%r8,8), %rax
	leaq	(%r8,%rax,2), %r10
	adcq	%rdx, %r13
	leaq	(%r10,%r10), %rax
	mulq	%r14
	addq	%rax, %r12
	adcq	%rdx, %r13
	movq	%r12, 48(%rsp)
	movq	%r13, 56(%rsp)
	leaq	(%rsi,%rsi), %r13
	movq	%r13, %rax
	mulq	%rdi
	movq	%rax, %r12
	movq	%r14, %rax
	movq	%rdx, %r13
	mulq	%r9
	addq	%rax, %r12
	movq	%r10, %rax
	adcq	%rdx, %r13
	mulq	%r8
	addq	%r12, %rax
	movq	48(%rsp), %r12
	adcq	%r13, %rdx
	movq	56(%rsp), %r13
	shrdq	$51, %r13, %r12
	shrq	$51, %r13
	addq	%rax, %r12
	movq	%r9, %rax
	adcq	%rdx, %r13
	mulq	%r8
	movq	%rax, %r8
	movq	%rsi, %rax
	movq	%rdx, %r9
	mulq	%rsi
	addq	%rax, %r8
	movq	%r11, %rax
	adcq	%rdx, %r9
	mulq	%rdi
	addq	%r8, %rax
	movq	%r12, %r8
	adcq	%r9, %rdx
	shrdq	$51, %r13, %r8
	movq	%r13, %r9
	shrq	$51, %r9
	addq	%r8, %rax
	adcq	%r9, %rdx
	movq	%rax, %r10
	movq	%r15, %rax
	movq	(%rsp), %r15
	movq	%rdx, %r11
	mulq	%rbx
	movq	%rax, %r8
	movq	%r15, %rax
	movq	%rdx, %r9
	mulq	%rdi
	addq	%rax, %r8
	movq	96(%rsp), %rax
	movq	%r10, 96(%rsp)
	adcq	%rdx, %r9
	mulq	%rsi
	addq	%r8, %rax
	movq	%r10, %r8
	leaq	(%rbx,%rbx), %r10
	adcq	%r9, %rdx
	movq	%r11, %r9
	shrdq	$51, %r11, %r8
	shrq	$51, %r9
	addq	%rax, %r8
	movq	%r10, %rax
	adcq	%rdx, %r9
	movq	%r8, %rdx
	andq	%rcx, %rdx
	movq	%rdx, (%rsp)
	mulq	%rdi
	movq	%rax, %r10
	movq	%r15, %rax
	movq	%rdx, %r11
	mulq	%rsi
	movq	%rax, %rsi
	movq	%rdx, %rdi
	movq	%r14, %rax
	addq	%r10, %rsi
	movq	96(%rsp), %r10
	adcq	%r11, %rdi
	mulq	%r14
	movq	%rax, %r14
	movq	%rdx, %r15
	addq	%rsi, %r14
	adcq	%rdi, %r15
	movq	%r14, %rax
	shrdq	$51, %r9, %r8
	movq	%r15, %rdx
	shrq	$51, %r9
	addq	%r8, %rax
	adcq	%r9, %rdx
	movq	%rax, %r15
	andq	%rcx, %r10
	shrdq	$51, %rdx, %rax
	andq	%rcx, %r15
	leaq	(%rax,%rax,8), %rdx
	leaq	(%rax,%rdx,2), %rdx
	movq	48(%rsp), %rax
	andq	%rcx, %rax
	addq	%rax, %rdx
	movq	%r12, %rax
	andq	%rcx, %rax
	movq	%rdx, %r14
	shrq	$51, %rdx
	addq	%rdx, %rax
	movq	(%rsp), %rdx
	andq	%rcx, %r14
	movq	%rax, %rsi
	shrq	$51, %rax
	leaq	(%r10,%rax), %rbx
	leaq	(%r15,%r15,8), %rax
	andq	%rcx, %rsi
	leaq	(%r15,%rax,2), %rdi
	leaq	(%rdx,%rdx,8), %rax
	leaq	(%rdx,%rax,2), %r8
	leaq	(%rbx,%rbx,8), %rax
	leaq	(%rbx,%rax,2), %r9
	movq	%r8, %rax
	mulq	656(%rsp)
	movq	%rax, %r12
	movq	%rdx, %r13
	movq	%rdi, %rax
	mulq	648(%rsp)
	addq	%rax, %r12
	movq	%r14, %rax
	adcq	%rdx, %r13
	mulq	640(%rsp)
	addq	%rax, %r12
	leaq	(%rsi,%rsi,8), %rax
	adcq	%rdx, %r13
	leaq	(%rsi,%rax,2), %rax
	mulq	672(%rsp)
	addq	%rax, %r12
	movq	%r9, %rax
	adcq	%rdx, %r13
	mulq	664(%rsp)
	movq	%r12, %r10
	movq	%r13, %r11
	addq	%rax, %r10
	movq	%r8, %rax
	adcq	%rdx, %r11
	mulq	664(%rsp)
	movq	%r10, 48(%rsp)
	movq	%rax, %r12
	movq	%rdx, %r13
	movq	%rdi, %rax
	mulq	656(%rsp)
	addq	%rax, %r12
	movq	%r14, %rax
	adcq	%rdx, %r13
	mulq	648(%rsp)
	addq	%rax, %r12
	movq	%rsi, %rax
	adcq	%rdx, %r13
	mulq	640(%rsp)
	addq	%rax, %r12
	movq	%r9, %rax
	adcq	%rdx, %r13
	mulq	672(%rsp)
	movq	%r11, 56(%rsp)
	addq	%r12, %rax
	movq	%r10, %r12
	adcq	%r13, %rdx
	shrdq	$51, %r11, %r12
	xorl	%r11d, %r11d
	addq	%r12, %rax
	adcq	%r11, %rdx
	movq	%rax, %r12
	movq	%r8, %rax
	movq	%rdx, %r13
	mulq	672(%rsp)
	movq	%r12, 96(%rsp)
	movq	%rax, %r8
	movq	%rdx, %r9
	movq	%rdi, %rax
	mulq	664(%rsp)
	addq	%rax, %r8
	movq	%r14, %rax
	adcq	%rdx, %r9
	mulq	656(%rsp)
	addq	%rax, %r8
	movq	%rsi, %rax
	adcq	%rdx, %r9
	mulq	648(%rsp)
	movq	%r8, %r10
	movq	%r9, %r11
	addq	%rax, %r10
	movq	%rbx, %rax
	adcq	%rdx, %r11
	mulq	640(%rsp)
	addq	%r10, %rax
	adcq	%r11, %rdx
	movq	%r12, %r11
	shrdq	$51, %r13, %r11
	xorl	%r13d, %r13d
	movq	%r11, %r12
	addq	%rax, %r12
	movq	%rdi, %rax
	movq	(%rsp), %rdi
	adcq	%rdx, %r13
	mulq	672(%rsp)
	movq	%rax, %r8
	movq	%rdx, %r9
	movq	%rdi, %rax
	mulq	640(%rsp)
	addq	%rax, %r8
	movq	%r14, %rax
	adcq	%rdx, %r9
	mulq	664(%rsp)
	addq	%rax, %r8
	movq	%rsi, %rax
	adcq	%rdx, %r9
	mulq	656(%rsp)
	movq	%rax, %r10
	movq	%rdx, %r11
	movq	%rbx, %rax
	addq	%r8, %r10
	movq	%r12, %r8
	adcq	%r9, %r11
	mulq	648(%rsp)
	addq	%rax, %r10
	movq	%rdi, %rax
	adcq	%rdx, %r11
	shrdq	$51, %r13, %r8
	xorl	%edx, %edx
	addq	%r8, %r10
	adcq	%rdx, %r11
	movq	%r10, %rdx
	andq	%rcx, %rdx
	movq	%rdx, (%rsp)
	mulq	648(%rsp)
	movq	%rax, %r8
	movq	%rdx, %r9
	movq	%r15, %rax
	mulq	640(%rsp)
	addq	%rax, %r8
	movq	%r14, %rax
	adcq	%rdx, %r9
	mulq	672(%rsp)
	addq	%rax, %r8
	movq	%rsi, %rax
	adcq	%rdx, %r9
	mulq	664(%rsp)
	addq	%rax, %r8
	movq	%rbx, %rax
	movq	32(%rsp), %rbx
	adcq	%rdx, %r9
	mulq	656(%rsp)
	addq	%r8, %rax
	adcq	%r9, %rdx
	shrdq	$51, %r11, %r10
	xorl	%edi, %edi
	movq	80(%rsp), %r11
	addq	%r10, %rax
	movq	%r12, %r10
	adcq	%rdi, %rdx
	movq	%rax, %rsi
	andq	%rcx, %r10
	shrdq	$51, %rdx, %rax
	andq	%rcx, %rsi
	leaq	(%rax,%rax,8), %rdx
	leaq	(%rax,%rdx,2), %rdx
	movq	48(%rsp), %rax
	andq	%rcx, %rax
	addq	%rax, %rdx
	movq	96(%rsp), %rax
	movq	%rsi, 96(%rsp)
	movq	%rdx, %r15
	shrq	$51, %rdx
	andq	%rcx, %rax
	andq	%rcx, %r15
	addq	%rdx, %rax
	movq	(%rsp), %rdx
	movq	%rax, %r14
	shrq	$51, %rax
	leaq	(%r10,%rax), %r10
	leaq	(%rsi,%rsi,8), %rax
	andq	%rcx, %r14
	leaq	(%rsi,%rax,2), %rsi
	leaq	(%rdx,%rdx,8), %rax
	movq	%r14, %r9
	movq	%r10, 48(%rsp)
	leaq	(%rdx,%rax,2), %r8
	leaq	(%r10,%r10,8), %rax
	movq	%r9, 120(%rsp)
	leaq	(%r10,%rax,2), %rdi
	movq	16(%rsp), %rax
	movq	%r15, %r10
	movq	%r10, 32(%rsp)
	mulq	%r8
	movq	%rax, %r12
	movq	%r11, %rax
	movq	%rdx, %r13
	mulq	%rsi
	addq	%rax, %r12
	movq	%rbx, %rax
	adcq	%rdx, %r13
	mulq	%r15
	addq	%rax, %r12
	leaq	(%r14,%r14,8), %rax
	adcq	%rdx, %r13
	leaq	(%r14,%rax,2), %rax
	mulq	64(%rsp)
	addq	%rax, %r12
	movq	%rbp, %rax
	adcq	%rdx, %r13
	mulq	%rdi
	movq	%r12, %r14
	movq	%r13, %r15
	addq	%rax, %r14
	movq	%rbp, %rax
	adcq	%rdx, %r15
	mulq	%r8
	movq	%rax, %r12
	movq	16(%rsp), %rax
	movq	%rdx, %r13
	mulq	%rsi
	addq	%rax, %r12
	movq	%r11, %rax
	movq	%r15, %r11
	adcq	%rdx, %r13
	mulq	%r10
	movq	%r14, %r10
	addq	%rax, %r12
	movq	%rbx, %rax
	adcq	%rdx, %r13
	mulq	%r9
	addq	%rax, %r12
	movq	%rdi, %rax
	movq	64(%rsp), %rdi
	adcq	%rdx, %r13
	mulq	%rdi
	addq	%r12, %rax
	adcq	%r13, %rdx
	shrdq	$51, %r15, %r10
	shrq	$51, %r11
	addq	%r10, %rax
	adcq	%r11, %rdx
	movq	%rax, %r12
	movq	%r8, %rax
	movq	%rdx, %r13
	mulq	%rdi
	movq	%rax, %r8
	movq	%rbp, %rax
	movq	%rdx, %r9
	mulq	%rsi
	addq	%rax, %r8
	movq	16(%rsp), %rax
	adcq	%rdx, %r9
	mulq	32(%rsp)
	movq	%r8, %r10
	movq	%r12, 128(%rsp)
	movq	%r9, %r11
	addq	%rax, %r10
	movq	80(%rsp), %rax
	adcq	%rdx, %r11
	mulq	120(%rsp)
	addq	%rax, %r10
	movq	%rbx, %rax
	adcq	%rdx, %r11
	mulq	48(%rsp)
	addq	%r10, %rax
	adcq	%r11, %rdx
	shrdq	$51, %r13, %r12
	shrq	$51, %r13
	addq	%rax, %r12
	movq	%rsi, %rax
	adcq	%rdx, %r13
	mulq	%rdi
	movq	%rax, %rsi
	movq	%rdx, %rdi
	movq	%rbx, %rax
	mulq	(%rsp)
	addq	%rax, %rsi
	movq	32(%rsp), %rax
	adcq	%rdx, %rdi
	mulq	%rbp
	addq	%rax, %rsi
	movq	16(%rsp), %rax
	adcq	%rdx, %rdi
	mulq	120(%rsp)
	movq	%rsi, %r8
	movq	80(%rsp), %rsi
	movq	%rdi, %r9
	addq	%rax, %r8
	movq	%rsi, %rax
	adcq	%rdx, %r9
	mulq	48(%rsp)
	movq	%rax, %r10
	movq	%rdx, %r11
	movq	%r12, %rax
	movq	%r13, %rdx
	addq	%r8, %r10
	adcq	%r9, %r11
	shrdq	$51, %r13, %rax
	shrq	$51, %rdx
	addq	%rax, %r10
	movq	%r10, %rax
	adcq	%rdx, %r11
	andq	%rcx, %rax
	movq	%rax, %rdi
	movq	%rsi, %rax
	mulq	(%rsp)
	movq	%rdi, 344(%rsp)
	movq	%rax, %r8
	movq	%rdx, %r9
	movq	%rbx, %rax
	mulq	96(%rsp)
	addq	%rax, %r8
	movq	64(%rsp), %rax
	adcq	%rdx, %r9
	mulq	32(%rsp)
	addq	%rax, %r8
	movq	%rbp, %rax
	adcq	%rdx, %r9
	mulq	120(%rsp)
	addq	%rax, %r8
	movq	16(%rsp), %rax
	adcq	%rdx, %r9
	mulq	48(%rsp)
	addq	%r8, %rax
	adcq	%r9, %rdx
	shrdq	$51, %r11, %r10
	shrq	$51, %r11
	addq	%r10, %rax
	adcq	%r11, %rdx
	movq	%rax, %r10
	andq	%rcx, %r14
	shrdq	$51, %rdx, %rax
	andq	%rcx, %r10
	leaq	(%rax,%rax,8), %rdx
	movq	%r10, %rbx
	movq	%r10, 352(%rsp)
	leaq	(%rax,%rdx,2), %rdx
	addq	%r14, %rdx
	movq	%rdx, %rax
	shrq	$51, %rdx
	andq	%rcx, %rax
	movq	%rax, %r8
	movq	128(%rsp), %rax
	movq	%r8, 320(%rsp)
	andq	%rcx, %rax
	addq	%rdx, %rax
	movq	%r12, %rdx
	movq	%rax, %r14
	andq	%rcx, %rdx
	shrq	$51, %rax
	andq	%rcx, %r14
	movq	%r14, %rsi
	leaq	(%rdx,%rax), %r14
	leaq	(%r10,%r10,8), %rax
	leaq	(%r10,%rax,2), %r15
	leaq	(%rdi,%rdi), %rax
	movq	%rsi, 328(%rsp)
	leaq	(%r15,%r15), %r9
	movq	%rax, 16(%rsp)
	leaq	(%r14,%r14), %r10
	movq	%r9, %rax
	movq	%r10, 64(%rsp)
	mulq	%rsi
	movq	%r14, 336(%rsp)
	movq	%rax, %r12
	movq	%r8, %rax
	movq	%rdx, %r13
	mulq	%r8
	addq	%rax, %r12
	leaq	(%rdi,%rdi,8), %rax
	leaq	(%rdi,%rax,2), %rbp
	adcq	%rdx, %r13
	movq	%r12, %r10
	leaq	(%rbp,%rbp), %rax
	movq	%r13, %r11
	leaq	(%rsi,%rsi), %r13
	mulq	%r14
	addq	%rax, %r10
	movq	%r13, %rax
	adcq	%rdx, %r11
	mulq	%r8
	movq	%r10, 80(%rsp)
	movq	%rax, %r12
	movq	%r9, %rax
	movq	%rdx, %r13
	mulq	%r14
	addq	%rax, %r12
	movq	%rbp, %rax
	adcq	%rdx, %r13
	mulq	%rdi
	addq	%r12, %rax
	movq	%r10, %r12
	adcq	%r13, %rdx
	movq	%r11, %r13
	shrdq	$51, %r11, %r12
	shrq	$51, %r13
	addq	%rax, %r12
	movq	%rdi, %rax
	adcq	%rdx, %r13
	mulq	%r9
	movq	64(%rsp), %r9
	movq	%r12, %rdi
	movq	%r13, %rbp
	movq	%rax, %r10
	movq	%rsi, %rax
	movq	%rdx, %r11
	mulq	%rsi
	addq	%rax, %r10
	movq	%r9, %rax
	adcq	%rdx, %r11
	mulq	%r8
	addq	%r10, %rax
	adcq	%r11, %rdx
	shrdq	$51, %r13, %rdi
	shrq	$51, %rbp
	addq	%rdi, %rax
	adcq	%rbp, %rdx
	movq	%rax, %rdi
	movq	%r15, %rax
	movq	16(%rsp), %r15
	movq	%rdx, %rbp
	mulq	%rbx
	movq	%rdi, 16(%rsp)
	movq	%rax, %r10
	movq	%r15, %rax
	movq	%rdx, %r11
	mulq	%r8
	addq	%rax, %r10
	movq	%r9, %rax
	adcq	%rdx, %r11
	mulq	%rsi
	addq	%rax, %r10
	movq	%rdi, %rax
	adcq	%rdx, %r11
	shrdq	$51, %rbp, %rax
	movq	%rbp, %rdx
	shrq	$51, %rdx
	addq	%rax, %r10
	adcq	%rdx, %r11
	addq	%rbx, %rbx
	movq	%r10, %rbp
	movq	%rbx, %rax
	andq	%rcx, %rbp
	mulq	%r8
	movq	%rax, %r8
	movq	%r15, %rax
	movq	%rdx, %r9
	mulq	%rsi
	movq	%rax, %rsi
	movq	%rdx, %rdi
	movq	%r14, %rax
	addq	%r8, %rsi
	adcq	%r9, %rdi
	mulq	%r14
	movq	%rax, %r14
	movq	%rdx, %r15
	addq	%rsi, %r14
	adcq	%rdi, %r15
	shrdq	$51, %r11, %r10
	shrq	$51, %r11
	addq	%r10, %r14
	movq	16(%rsp), %r10
	adcq	%r11, %r15
	movq	%r14, %rax
	movq	%r15, %rdx
	movq	%r14, %r15
	andq	%rcx, %r10
	shrdq	$51, %rdx, %rax
	andq	%rcx, %r15
	movq	%r10, %rsi
	leaq	(%rax,%rax,8), %rdx
	leaq	(%rax,%rdx,2), %rdx
	movq	80(%rsp), %rax
	andq	%rcx, %rax
	addq	%rax, %rdx
	movq	%r12, %rax
	andq	%rcx, %rax
	movq	%rdx, %r14
	shrq	$51, %rdx
	addq	%rdx, %rax
	andq	%rcx, %r14
	movq	%rax, %rdi
	shrq	$51, %rax
	addq	%rax, %rsi
	leaq	(%r15,%r15,8), %rax
	andq	%rcx, %rdi
	leaq	(%r15,%rax,2), %rbx
	leaq	0(%rbp,%rbp,8), %rax
	leaq	0(%rbp,%rax,2), %r9
	leaq	(%rsi,%rsi,8), %rax
	leaq	(%rsi,%rax,2), %r8
	movq	48(%rsp), %rax
	mulq	%r9
	movq	%rax, %r12
	movq	120(%rsp), %rax
	movq	%rdx, %r13
	mulq	%rbx
	addq	%rax, %r12
	movq	32(%rsp), %rax
	adcq	%rdx, %r13
	mulq	%r14
	addq	%rax, %r12
	leaq	(%rdi,%rdi,8), %rax
	adcq	%rdx, %r13
	leaq	(%rdi,%rax,2), %rax
	mulq	96(%rsp)
	addq	%rax, %r12
	movq	(%rsp), %rax
	adcq	%rdx, %r13
	movq	%r12, %r10
	mulq	%r8
	movq	%r13, %r11
	addq	%rax, %r10
	movq	(%rsp), %rax
	adcq	%rdx, %r11
	movq	%r10, 64(%rsp)
	mulq	%r9
	movq	%r11, 72(%rsp)
	movq	%rax, %r12
	movq	48(%rsp), %rax
	movq	%rdx, %r13
	mulq	%rbx
	addq	%rax, %r12
	movq	120(%rsp), %rax
	adcq	%rdx, %r13
	mulq	%r14
	addq	%rax, %r12
	movq	32(%rsp), %rax
	adcq	%rdx, %r13
	mulq	%rdi
	addq	%rax, %r12
	movq	%r8, %rax
	movq	96(%rsp), %r8
	adcq	%rdx, %r13
	mulq	%r8
	addq	%r12, %rax
	adcq	%r13, %rdx
	shrdq	$51, %r11, %r10
	shrq	$51, %r11
	addq	%r10, %rax
	adcq	%r11, %rdx
	movq	%rax, %r12
	movq	%r9, %rax
	movq	%rdx, %r13
	mulq	%r8
	movq	%r12, 80(%rsp)
	movq	%rax, %r8
	movq	(%rsp), %rax
	movq	%rdx, %r9
	mulq	%rbx
	addq	%rax, %r8
	movq	48(%rsp), %rax
	adcq	%rdx, %r9
	mulq	%r14
	addq	%rax, %r8
	adcq	%rdx, %r9
	movq	%r8, %r10
	movq	32(%rsp), %r8
	movq	%r9, %r11
	movq	120(%rsp), %r9
	movq	%r9, %rax
	mulq	%rdi
	addq	%rax, %r10
	movq	%r8, %rax
	adcq	%rdx, %r11
	mulq	%rsi
	addq	%r10, %rax
	adcq	%r11, %rdx
	shrdq	$51, %r13, %r12
	shrq	$51, %r13
	addq	%rax, %r12
	movq	%rbx, %rax
	movq	%r9, %rbx
	adcq	%rdx, %r13
	mulq	96(%rsp)
	movq	%rax, %r10
	movq	%r8, %rax
	movq	%rdx, %r11
	mulq	%rbp
	addq	%rax, %r10
	movq	(%rsp), %rax
	adcq	%rdx, %r11
	mulq	%r14
	addq	%rax, %r10
	movq	48(%rsp), %rax
	adcq	%rdx, %r11
	mulq	%rdi
	addq	%rax, %r10
	movq	%r9, %rax
	adcq	%rdx, %r11
	mulq	%rsi
	movq	%rax, %r8
	movq	%rdx, %r9
	movq	%r12, %rax
	movq	%r13, %rdx
	addq	%r10, %r8
	adcq	%r11, %r9
	shrdq	$51, %r13, %rax
	shrq	$51, %rdx
	addq	%rax, %r8
	movq	%r8, %rax
	adcq	%rdx, %r9
	andq	%rcx, %rax
	movq	%rax, 16(%rsp)
	movq	%rbx, %rax
	mulq	%rbp
	movq	%rax, %r10
	movq	32(%rsp), %rax
	movq	%rdx, %r11
	mulq	%r15
	addq	%rax, %r10
	movq	96(%rsp), %rax
	adcq	%rdx, %r11
	mulq	%r14
	movq	%rax, %r14
	movq	(%rsp), %rax
	movq	%rdx, %r15
	addq	%r10, %r14
	adcq	%r11, %r15
	mulq	%rdi
	addq	%rax, %r14
	movq	48(%rsp), %rax
	adcq	%rdx, %r15
	mulq	%rsi
	movq	%rax, %rsi
	movq	%rdx, %rdi
	addq	%r14, %rsi
	adcq	%r15, %rdi
	shrdq	$51, %r9, %r8
	shrq	$51, %r9
	addq	%r8, %rsi
	adcq	%r9, %rdi
	movq	%rsi, %r11
	andq	%rcx, %r12
	movq	16(%rsp), %r9
	shrdq	$51, %rdi, %rsi
	andq	%rcx, %r11
	leaq	(%rsi,%rsi,8), %rax
	leaq	(%rsi,%rax,2), %rdx
	movq	64(%rsp), %rax
	movq	%r11, 64(%rsp)
	andq	%rcx, %rax
	addq	%rax, %rdx
	movq	80(%rsp), %rax
	movq	%rdx, %rbx
	shrq	$51, %rdx
	andq	%rcx, %rax
	andq	%rcx, %rbx
	addq	%rdx, %rax
	movq	%rax, %rbp
	shrq	$51, %rax
	leaq	(%r12,%rax), %rdi
	leaq	(%r11,%r11,8), %rax
	andq	%rcx, %rbp
	leaq	(%r11,%rax,2), %r8
	leaq	(%r9,%r9,8), %rax
	leaq	(%r8,%r8), %rsi
	leaq	(%r9,%rax,2), %r14
	movq	%r8, 32(%rsp)
	movq	%rsi, %rax
	leaq	(%r9,%r9), %r8
	movq	%rdi, %r9
	movq	%r14, 48(%rsp)
	mulq	%rbp
	movq	%r9, (%rsp)
	leaq	(%rdi,%rdi), %rdi
	movq	%rax, %r12
	movq	%rbx, %rax
	movq	%rdx, %r13
	mulq	%rbx
	addq	%rax, %r12
	leaq	(%r14,%r14), %rax
	adcq	%rdx, %r13
	mulq	%r9
	movq	%r12, %r14
	leaq	(%rbp,%rbp), %r12
	movq	%r13, %r15
	addq	%rax, %r14
	movq	%r12, %rax
	adcq	%rdx, %r15
	mulq	%rbx
	movq	%rax, %r10
	movq	%r9, %rax
	movq	%rdx, %r11
	movq	16(%rsp), %r9
	mulq	%rsi
	movq	%rbx, 120(%rsp)
	addq	%rax, %r10
	movq	%r9, %rax
	adcq	%rdx, %r11
	mulq	48(%rsp)
	addq	%rax, %r10
	movq	%r14, %rax
	adcq	%rdx, %r11
	shrdq	$51, %r15, %rax
	movq	%r15, %rdx
	shrq	$51, %rdx
	addq	%rax, %r10
	movq	%rsi, %rax
	adcq	%rdx, %r11
	mulq	%r9
	movq	%r10, %r12
	movq	%r11, %r13
	movq	%r12, 80(%rsp)
	movq	%rax, %r10
	movq	%rbp, %rax
	movq	%rdx, %r11
	mulq	%rbp
	addq	%rax, %r10
	movq	%rbx, %rax
	adcq	%rdx, %r11
	mulq	%rdi
	addq	%rax, %r10
	movq	64(%rsp), %rax
	adcq	%rdx, %r11
	shrdq	$51, %r13, %r12
	shrq	$51, %r13
	addq	%r10, %r12
	adcq	%r11, %r13
	mulq	32(%rsp)
	movq	%rax, %r10
	movq	%rbx, %rax
	movq	%rdx, %r11
	mulq	%r8
	addq	%rax, %r10
	movq	%rdi, %rax
	adcq	%rdx, %r11
	mulq	%rbp
	movq	%rax, %rsi
	movq	%rdx, %rdi
	movq	%r12, %rax
	movq	%r13, %rdx
	addq	%r10, %rsi
	adcq	%r11, %rdi
	shrdq	$51, %r13, %rax
	movq	64(%rsp), %r11
	shrq	$51, %rdx
	addq	%rax, %rsi
	movq	%rsi, %rax
	adcq	%rdx, %rdi
	leaq	(%r11,%r11), %r10
	andq	%rcx, %rax
	movq	%rax, %r9
	movq	%r10, %rax
	mulq	%rbx
	movq	%rax, %r10
	movq	%r8, %rax
	movq	%rdx, %r11
	movq	(%rsp), %r8
	mulq	%rbp
	addq	%rax, %r10
	movq	%r8, %rax
	adcq	%rdx, %r11
	mulq	%r8
	addq	%r10, %rax
	adcq	%r11, %rdx
	shrdq	$51, %rdi, %rsi
	shrq	$51, %rdi
	addq	%rsi, %rax
	adcq	%rdi, %rdx
	movq	%rax, %rdi
	andq	%rcx, %r14
	shrdq	$51, %rdx, %rax
	andq	%rcx, %rdi
	leaq	(%rax,%rax,8), %rdx
	movq	%rdi, %rbx
	leaq	(%rax,%rdx,2), %rdx
	addq	%r14, %rdx
	movq	%rdx, %rax
	shrq	$51, %rdx
	andq	%rcx, %rax
	movq	%rax, %r8
	movq	80(%rsp), %rax
	andq	%rcx, %rax
	addq	%rdx, %rax
	movq	%r12, %rdx
	andq	%rcx, %rdx
	movq	%rax, %rdi
	shrq	$51, %rax
	leaq	(%rdx,%rax), %r14
	leaq	(%rbx,%rbx,8), %rax
	andq	%rcx, %rdi
	leaq	(%rbx,%rax,2), %r15
	leaq	(%r9,%r9), %rax
	movq	%rax, 144(%rsp)
	leaq	(%r14,%r14), %rdx
	movq	%r8, %rax
	leaq	(%r15,%r15), %rsi
	movq	%rdx, 80(%rsp)
	mulq	%r8
	movq	%rax, %r12
	movq	%rdi, %rax
	movq	%rdx, %r13
	mulq	%rsi
	addq	%rax, %r12
	leaq	(%r9,%r9,8), %rax
	leaq	(%r9,%rax,2), %r10
	adcq	%rdx, %r13
	leaq	(%r10,%r10), %rax
	mulq	%r14
	addq	%rax, %r12
	adcq	%rdx, %r13
	movq	%r12, 96(%rsp)
	movq	%r13, 104(%rsp)
	leaq	(%rdi,%rdi), %r13
	movq	104(%rsp), %r11
	movq	%r13, %rax
	mulq	%r8
	movq	%rax, %r12
	movq	%r14, %rax
	movq	%rdx, %r13
	mulq	%rsi
	addq	%rax, %r12
	movq	%r10, %rax
	movq	96(%rsp), %r10
	adcq	%rdx, %r13
	mulq	%r9
	addq	%r12, %rax
	adcq	%r13, %rdx
	shrdq	$51, %r11, %r10
	shrq	$51, %r11
	addq	%r10, %rax
	adcq	%r11, %rdx
	movq	%rax, %r12
	movq	%rdi, %rax
	movq	%rdx, %r13
	mulq	%rdi
	movq	%r12, 128(%rsp)
	movq	%rax, %r10
	movq	%rsi, %rax
	movq	%rdx, %r11
	movq	80(%rsp), %rsi
	mulq	%r9
	addq	%rax, %r10
	movq	%rsi, %rax
	adcq	%rdx, %r11
	mulq	%r8
	addq	%r10, %rax
	adcq	%r11, %rdx
	movq	%r12, %r11
	movq	%r13, %r12
	shrdq	$51, %r13, %r11
	shrq	$51, %r12
	addq	%r11, %rax
	movq	%rax, 80(%rsp)
	adcq	%r12, %rdx
	movq	%r15, %rax
	movq	144(%rsp), %r15
	movq	%rdx, 88(%rsp)
	mulq	%rbx
	movq	%rax, %r12
	movq	%r15, %rax
	movq	%rdx, %r13
	mulq	%r8
	addq	%rax, %r12
	movq	%rsi, %rax
	adcq	%rdx, %r13
	mulq	%rdi
	movq	%rax, %r10
	movq	%rdx, %r11
	movq	80(%rsp), %rax
	movq	88(%rsp), %rdx
	addq	%r12, %r10
	leaq	(%rbx,%rbx), %r12
	adcq	%r13, %r11
	shrdq	$51, %rdx, %rax
	shrq	$51, %rdx
	addq	%rax, %r10
	movq	%r12, %rax
	adcq	%rdx, %r11
	movq	%r10, %rdx
	andq	%rcx, %rdx
	movq	%rdx, %r9
	mulq	%r8
	movq	%rax, %r12
	movq	%r15, %rax
	movq	%rdx, %r13
	mulq	%rdi
	addq	%rax, %r12
	movq	%r14, %rax
	adcq	%rdx, %r13
	mulq	%r14
	movq	%rax, %r14
	movq	%rdx, %r15
	movq	96(%rsp), %rdx
	addq	%r12, %r14
	adcq	%r13, %r15
	shrdq	$51, %r11, %r10
	shrq	$51, %r11
	addq	%r10, %r14
	adcq	%r11, %r15
	movq	%r14, %rdi
	andq	%rcx, %rdx
	shrdq	$51, %r15, %r14
	andq	%rcx, %rdi
	leaq	(%r14,%r14,8), %rax
	movq	%rdi, %rbx
	leaq	(%r14,%rax,2), %rax
	addq	%rdx, %rax
	movq	128(%rsp), %rdx
	movq	%rax, %rdi
	shrq	$51, %rax
	andq	%rcx, %rdx
	andq	%rcx, %rdi
	addq	%rdx, %rax
	movq	80(%rsp), %rdx
	movq	%rdi, %r8
	movq	%rax, %rdi
	shrq	$51, %rax
	andq	%rcx, %rdx
	andq	%rcx, %rdi
	leaq	(%rax,%rdx), %r14
	leaq	(%rbx,%rbx,8), %rax
	leaq	(%rbx,%rax,2), %r15
	leaq	(%r9,%r9), %rax
	leaq	(%r14,%r14), %rdx
	movq	%rax, 144(%rsp)
	movq	%r8, %rax
	leaq	(%r15,%r15), %rsi
	movq	%rdx, 80(%rsp)
	mulq	%r8
	movq	%rax, %r12
	movq	%rdi, %rax
	movq	%rdx, %r13
	mulq	%rsi
	addq	%rax, %r12
	leaq	(%r9,%r9,8), %rax
	leaq	(%r9,%rax,2), %r10
	adcq	%rdx, %r13
	leaq	(%r10,%r10), %rax
	mulq	%r14
	addq	%rax, %r12
	adcq	%rdx, %r13
	movq	%r12, 96(%rsp)
	movq	%r13, 104(%rsp)
	leaq	(%rdi,%rdi), %r13
	movq	104(%rsp), %r11
	movq	%r13, %rax
	mulq	%r8
	movq	%rax, %r12
	movq	%r14, %rax
	movq	%rdx, %r13
	mulq	%rsi
	addq	%rax, %r12
	movq	%r10, %rax
	movq	96(%rsp), %r10
	adcq	%rdx, %r13
	mulq	%r9
	addq	%r12, %rax
	adcq	%r13, %rdx
	shrdq	$51, %r11, %r10
	shrq	$51, %r11
	addq	%r10, %rax
	adcq	%r11, %rdx
	movq	%rax, %r12
	movq	%rdi, %rax
	movq	%rdx, %r13
	mulq	%rdi
	movq	%rax, %r10
	movq	%rsi, %rax
	movq	%rdx, %r11
	movq	80(%rsp), %rsi
	mulq	%r9
	movq	%r12, 128(%rsp)
	addq	%rax, %r10
	movq	%rsi, %rax
	adcq	%rdx, %r11
	mulq	%r8
	addq	%r10, %rax
	adcq	%r11, %rdx
	movq	%r12, %r11
	movq	%r13, %r12
	shrdq	$51, %r13, %r11
	shrq	$51, %r12
	addq	%r11, %rax
	movq	%rax, 80(%rsp)
	adcq	%r12, %rdx
	movq	%r15, %rax
	movq	144(%rsp), %r15
	movq	%rdx, 88(%rsp)
	mulq	%rbx
	movq	%rax, %r12
	movq	%r15, %rax
	movq	%rdx, %r13
	mulq	%r8
	addq	%rax, %r12
	movq	%rsi, %rax
	adcq	%rdx, %r13
	mulq	%rdi
	movq	%rax, %r10
	movq	%rdx, %r11
	movq	80(%rsp), %rax
	movq	88(%rsp), %rdx
	addq	%r12, %r10
	leaq	(%rbx,%rbx), %r12
	adcq	%r13, %r11
	shrdq	$51, %rdx, %rax
	shrq	$51, %rdx
	addq	%rax, %r10
	movq	%r12, %rax
	adcq	%rdx, %r11
	movq	%r10, %rdx
	andq	%rcx, %rdx
	movq	%rdx, %r9
	mulq	%r8
	movq	%rax, %r12
	movq	%r15, %rax
	movq	%rdx, %r13
	mulq	%rdi
	movq	%rcx, %rdi
	addq	%rax, %r12
	movq	%r14, %rax
	adcq	%rdx, %r13
	mulq	%r14
	movq	%rax, %r14
	movq	%rdx, %r15
	movq	96(%rsp), %rdx
	addq	%r12, %r14
	adcq	%r13, %r15
	shrdq	$51, %r11, %r10
	shrq	$51, %r11
	addq	%r10, %r14
	adcq	%r11, %r15
	andq	%r14, %rdi
	andq	%rcx, %rdx
	shrdq	$51, %r15, %r14
	movq	%rdi, %rbx
	leaq	(%r14,%r14,8), %rax
	leaq	(%r14,%rax,2), %rax
	addq	%rdx, %rax
	movq	128(%rsp), %rdx
	movq	%rax, %rdi
	shrq	$51, %rax
	andq	%rcx, %rdx
	andq	%rcx, %rdi
	addq	%rdx, %rax
	movq	80(%rsp), %rdx
	movq	%rdi, %r8
	movq	%rax, %rdi
	shrq	$51, %rax
	andq	%rcx, %rdx
	andq	%rcx, %rdi
	leaq	(%rax,%rdx), %r14
	leaq	(%rbx,%rbx,8), %rax
	leaq	(%rbx,%rax,2), %r15
	leaq	(%r9,%r9), %rax
	movq	%rax, 144(%rsp)
	leaq	(%r14,%r14), %rdx
	movq	%r8, %rax
	leaq	(%r15,%r15), %rsi
	movq	%rdx, 80(%rsp)
	mulq	%r8
	movq	%rax, %r12
	movq	%rdi, %rax
	movq	%rdx, %r13
	mulq	%rsi
	addq	%rax, %r12
	leaq	(%r9,%r9,8), %rax
	leaq	(%r9,%rax,2), %r10
	adcq	%rdx, %r13
	leaq	(%r10,%r10), %rax
	mulq	%r14
	addq	%rax, %r12
	adcq	%rdx, %r13
	movq	%r12, 96(%rsp)
	movq	%r13, 104(%rsp)
	leaq	(%rdi,%rdi), %r13
	movq	104(%rsp), %r11
	movq	%r13, %rax
	mulq	%r8
	movq	%rax, %r12
	movq	%r14, %rax
	movq	%rdx, %r13
	mulq	%rsi
	addq	%rax, %r12
	movq	%r10, %rax
	movq	96(%rsp), %r10
	adcq	%rdx, %r13
	mulq	%r9
